
dfajac:	file format ELF64-x86-64


Disassembly of section .interp:

00000000000002a8 .interp:
     2a8: 2f                           	<unknown>
     2a9: 6c                           	insb	%dx, %es:(%rdi)
     2aa: 69 62 36 34 2f 6c 64         	imull	$1684811572, 54(%rdx), %esp
     2b1: 2d 6c 69 6e 75               	subl	$1970170220, %eax
     2b6: 78 2d                        	js	45 <ladderjac.c+0x2e5>
     2b8: 78 38                        	js	56 <ladderjac.c+0x2f2>
     2ba: 36 2d 36 34 2e 73            	subl	$1932407862, %eax
     2c0: 6f                           	outsl	(%rsi), %dx
     2c1: 2e 32 00                     	xorb	%cs:(%rax), %al

Disassembly of section .note.ABI-tag:

00000000000002c4 .note.ABI-tag:
     2c4: 04 00                        	addb	$0, %al
     2c6: 00 00                        	addb	%al, (%rax)
     2c8: 10 00                        	adcb	%al, (%rax)
     2ca: 00 00                        	addb	%al, (%rax)
     2cc: 01 00                        	addl	%eax, (%rax)
     2ce: 00 00                        	addb	%al, (%rax)
     2d0: 47 4e                        	<unknown>
     2d2: 55                           	pushq	%rbp
     2d3: 00 00                        	addb	%al, (%rax)
     2d5: 00 00                        	addb	%al, (%rax)
     2d7: 00 03                        	addb	%al, (%rbx)
     2d9: 00 00                        	addb	%al, (%rax)
     2db: 00 02                        	addb	%al, (%rdx)
     2dd: 00 00                        	addb	%al, (%rax)
     2df: 00 00                        	addb	%al, (%rax)
     2e1: 00 00                        	addb	%al, (%rax)
     2e3: 00                           	<unknown>

Disassembly of section .note.gnu.build-id:

00000000000002e4 .note.gnu.build-id:
     2e4: 04 00                        	addb	$0, %al
     2e6: 00 00                        	addb	%al, (%rax)
     2e8: 14 00                        	adcb	$0, %al
     2ea: 00 00                        	addb	%al, (%rax)
     2ec: 03 00                        	addl	(%rax), %eax
     2ee: 00 00                        	addb	%al, (%rax)
     2f0: 47 4e                        	<unknown>
     2f2: 55                           	pushq	%rbp
     2f3: 00 f5                        	addb	%dh, %ch
     2f5: 73 16                        	jae	22 <ladderjac.c+0x30d>
     2f7: ea                           	<unknown>
     2f8: 1a b1 05 a7 5d 89            	sbbb	-1990351099(%rcx), %dh
     2fe: 8e fd                        	<unknown>
     300: 85 a6 df 59 18 31            	testl	%esp, 823679455(%rsi)
     306: 62 a2                        	<unknown>

Disassembly of section .gnu.hash:

0000000000000308 .gnu.hash:
     308: 02 00                        	addb	(%rax), %al
     30a: 00 00                        	addb	%al, (%rax)
     30c: 0a 00                        	orb	(%rax), %al
     30e: 00 00                        	addb	%al, (%rax)
     310: 01 00                        	addl	%eax, (%rax)
     312: 00 00                        	addb	%al, (%rax)
     314: 06                           	<unknown>
     315: 00 00                        	addb	%al, (%rax)
     317: 00 00                        	addb	%al, (%rax)
     319: 01 81 00 00 00 00            	addl	%eax, (%rcx)
     31f: 02 0a                        	addb	(%rdx), %cl
     321: 00 00                        	addb	%al, (%rax)
     323: 00 0b                        	addb	%cl, (%rbx)
     325: 00 00                        	addb	%al, (%rax)
     327: 00 d1                        	addb	%dl, %cl
     329: 65 ce                        	<unknown>
     32b: 6d                           	insl	%dx, %es:(%rdi)
     32c: 39 f2                        	cmpl	%esi, %edx
     32e: 8b 1c                        	<unknown>

Disassembly of section .dynsym:

0000000000000330 .dynsym:
		...
     348: 61                           	<unknown>
     349: 00 00                        	addb	%al, (%rax)
     34b: 00 20                        	addb	%ah, (%rax)
		...
     35d: 00 00                        	addb	%al, (%rax)
     35f: 00 17                        	addb	%dl, (%rdi)
     361: 00 00                        	addb	%al, (%rax)
     363: 00 12                        	addb	%dl, (%rdx)
		...
     375: 00 00                        	addb	%al, (%rax)
     377: 00 11                        	addb	%dl, (%rcx)
     379: 00 00                        	addb	%al, (%rax)
     37b: 00 12                        	addb	%dl, (%rdx)
		...
     38d: 00 00                        	addb	%al, (%rax)
     38f: 00 43 00                     	addb	%al, (%rbx)
     392: 00 00                        	addb	%al, (%rax)
     394: 12 00                        	adcb	(%rax), %al
		...
     3a6: 00 00                        	addb	%al, (%rax)
     3a8: 2c 00                        	subb	$0, %al
     3aa: 00 00                        	addb	%al, (%rax)
     3ac: 12 00                        	adcb	(%rax), %al
		...
     3be: 00 00                        	addb	%al, (%rax)
     3c0: 7d 00                        	jge	0 <.dynsym+0x92>
     3c2: 00 00                        	addb	%al, (%rax)
     3c4: 20 00                        	andb	%al, (%rax)
		...
     3d6: 00 00                        	addb	%al, (%rax)
     3d8: 0b 00                        	orl	(%rax), %eax
     3da: 00 00                        	addb	%al, (%rax)
     3dc: 12 00                        	adcb	(%rax), %al
		...
     3ee: 00 00                        	addb	%al, (%rax)
     3f0: 25 00 00 00 12               	andl	$301989888, %eax
		...
     405: 00 00                        	addb	%al, (%rax)
     407: 00 8c 00 00 00 20 00         	addb	%cl, 2097152(%rax,%rax)
		...
     41e: 00 00                        	addb	%al, (%rax)
     420: 34 00                        	xorb	$0, %al
     422: 00 00                        	addb	%al, (%rax)
     424: 22 00                        	andb	(%rax), %al
		...
     436: 00 00                        	addb	%al, (%rax)
     438: 1e                           	<unknown>
     439: 00 00                        	addb	%al, (%rax)
     43b: 00 11                        	addb	%dl, (%rcx)
     43d: 00 19                        	addb	%bl, (%rcx)
     43f: 00 60 60                     	addb	%ah, 96(%rax)
     442: 00 00                        	addb	%al, (%rax)
     444: 00 00                        	addb	%al, (%rax)
     446: 00 00                        	addb	%al, (%rax)
     448: 08 00                        	orb	%al, (%rax)
     44a: 00 00                        	addb	%al, (%rax)
     44c: 00 00                        	addb	%al, (%rax)
     44e: 00 00                        	addb	%al, (%rax)

Disassembly of section .dynstr:

0000000000000450 .dynstr:
     450: 00 6c 69 62                  	addb	%ch, 98(%rcx,%rbp,2)
     454: 63 2e                        	movslq	(%rsi), %ebp
     456: 73 6f                        	jae	111 <.dynstr+0x77>
     458: 2e 36 00 66 6f               	addb	%ah, %ss:111(%rsi)
     45d: 70 65                        	jo	101 <.dynstr+0x74>
     45f: 6e                           	outsb	(%rsi), %dx
     460: 00 66 70                     	addb	%ah, 112(%rsi)
     463: 75 74                        	jne	116 <.dynstr+0x89>
     465: 63 00                        	movslq	(%rax), %eax
     467: 66 63 6c 6f 73               	movslq	115(%rdi,%rbp,2), %bp
     46c: 65 00 73 74                  	addb	%dh, %gs:116(%rbx)
     470: 64 65 72 72                  	jb	114 <.dynstr+0x96>
     474: 00 66 77                     	addb	%ah, 119(%rsi)
     477: 72 69                        	jb	105 <.dynstr+0x92>
     479: 74 65                        	je	101 <.dynstr+0x90>
     47b: 00 66 70                     	addb	%ah, 112(%rsi)
     47e: 72 69                        	jb	105 <.dynstr+0x99>
     480: 6e                           	outsb	(%rsi), %dx
     481: 74 66                        	je	102 <.dynstr+0x99>
     483: 00 5f 5f                     	addb	%bl, 95(%rdi)
     486: 63 78 61                     	movslq	97(%rax), %edi
     489: 5f                           	popq	%rdi
     48a: 66 69 6e 61 6c 69            	imulw	$26988, 97(%rsi), %bp
     490: 7a 65                        	jp	101 <ladderjac.c+0x4f7>
     492: 00 5f 5f                     	addb	%bl, 95(%rdi)
     495: 6c                           	insb	%dx, %es:(%rdi)
     496: 69 62 63 5f 73 74 61         	imull	$1635021663, 99(%rdx), %esp
     49d: 72 74                        	jb	116 <ladderjac.c+0x513>
     49f: 5f                           	popq	%rdi
     4a0: 6d                           	insl	%dx, %es:(%rdi)
     4a1: 61                           	<unknown>
     4a2: 69 6e 00 47 4c 49 42         	imull	$1112099911, (%rsi), %ebp
     4a9: 43 5f                        	popq	%r15
     4ab: 32 2e                        	xorb	(%rsi), %ch
     4ad: 32 2e                        	xorb	(%rsi), %ch
     4af: 35 00 5f 49 54               	xorl	$1414094592, %eax
     4b4: 4d 5f                        	popq	%r15
     4b6: 64 65 72 65                  	jb	101 <ladderjac.c+0x51f>
     4ba: 67 69 73 74 65 72 54 4d      	imull	$1297379941, 116(%ebx), %esi
     4c2: 43 6c                        	insb	%dx, %es:(%rdi)
     4c4: 6f                           	outsl	(%rsi), %dx
     4c5: 6e                           	outsb	(%rsi), %dx
     4c6: 65 54                        	pushq	%rsp
     4c8: 61                           	<unknown>
     4c9: 62                           	<unknown>
     4ca: 6c                           	insb	%dx, %es:(%rdi)
     4cb: 65 00 5f 5f                  	addb	%bl, %gs:95(%rdi)
     4cf: 67 6d                        	insl	%dx, %es:(%edi)
     4d1: 6f                           	outsl	(%rsi), %dx
     4d2: 6e                           	outsb	(%rsi), %dx
     4d3: 5f                           	popq	%rdi
     4d4: 73 74                        	jae	116 <ladderjac.c+0x54a>
     4d6: 61                           	<unknown>
     4d7: 72 74                        	jb	116 <ladderjac.c+0x54d>
     4d9: 5f                           	popq	%rdi
     4da: 5f                           	popq	%rdi
     4db: 00 5f 49                     	addb	%bl, 73(%rdi)
     4de: 54                           	pushq	%rsp
     4df: 4d 5f                        	popq	%r15
     4e1: 72 65                        	jb	101 <ladderjac.c+0x548>
     4e3: 67 69 73 74 65 72 54 4d      	imull	$1297379941, 116(%ebx), %esi
     4eb: 43 6c                        	insb	%dx, %es:(%rdi)
     4ed: 6f                           	outsl	(%rsi), %dx
     4ee: 6e                           	outsb	(%rsi), %dx
     4ef: 65 54                        	pushq	%rsp
     4f1: 61                           	<unknown>
     4f2: 62                           	<unknown>
     4f3: 6c                           	insb	%dx, %es:(%rdi)
     4f4: 65 00                        	<unknown>

Disassembly of section .gnu.version:

00000000000004f6 .gnu.version:
     4f6: 00 00                        	addb	%al, (%rax)
     4f8: 00 00                        	addb	%al, (%rax)
     4fa: 02 00                        	addb	(%rax), %al
     4fc: 02 00                        	addb	(%rax), %al
     4fe: 02 00                        	addb	(%rax), %al
     500: 02 00                        	addb	(%rax), %al
     502: 00 00                        	addb	%al, (%rax)
     504: 02 00                        	addb	(%rax), %al
     506: 02 00                        	addb	(%rax), %al
     508: 00 00                        	addb	%al, (%rax)
     50a: 02 00                        	addb	(%rax), %al
     50c: 02 00                        	addb	(%rax), %al

Disassembly of section .gnu.version_r:

0000000000000510 .gnu.version_r:
     510: 01 00                        	addl	%eax, (%rax)
     512: 01 00                        	addl	%eax, (%rax)
     514: 01 00                        	addl	%eax, (%rax)
     516: 00 00                        	addb	%al, (%rax)
     518: 10 00                        	adcb	%al, (%rax)
     51a: 00 00                        	addb	%al, (%rax)
     51c: 00 00                        	addb	%al, (%rax)
     51e: 00 00                        	addb	%al, (%rax)
     520: 75 1a                        	jne	26 <ladderjac.c+0x53c>
     522: 69 09 00 00 02 00            	imull	$131072, (%rcx), %ecx
     528: 55                           	pushq	%rbp
     529: 00 00                        	addb	%al, (%rax)
     52b: 00 00                        	addb	%al, (%rax)
     52d: 00 00                        	addb	%al, (%rax)
     52f: 00                           	<unknown>

Disassembly of section .rela.dyn:

0000000000000530 .rela.dyn:
     530: e8 5d 00 00 00               	callq	93 <.rela.dyn+0x62>
     535: 00 00                        	addb	%al, (%rax)
     537: 00 08                        	addb	%cl, (%rax)
     539: 00 00                        	addb	%al, (%rax)
     53b: 00 00                        	addb	%al, (%rax)
     53d: 00 00                        	addb	%al, (%rax)
     53f: 00 f0                        	addb	%dh, %al
     541: 12 00                        	adcb	(%rax), %al
     543: 00 00                        	addb	%al, (%rax)
     545: 00 00                        	addb	%al, (%rax)
     547: 00 f0                        	addb	%dh, %al
     549: 5d                           	popq	%rbp
     54a: 00 00                        	addb	%al, (%rax)
     54c: 00 00                        	addb	%al, (%rax)
     54e: 00 00                        	addb	%al, (%rax)
     550: 08 00                        	orb	%al, (%rax)
     552: 00 00                        	addb	%al, (%rax)
     554: 00 00                        	addb	%al, (%rax)
     556: 00 00                        	addb	%al, (%rax)
     558: b0 12                        	movb	$18, %al
     55a: 00 00                        	addb	%al, (%rax)
     55c: 00 00                        	addb	%al, (%rax)
     55e: 00 00                        	addb	%al, (%rax)
     560: 48 60                        	<unknown>
     562: 00 00                        	addb	%al, (%rax)
     564: 00 00                        	addb	%al, (%rax)
     566: 00 00                        	addb	%al, (%rax)
     568: 08 00                        	orb	%al, (%rax)
     56a: 00 00                        	addb	%al, (%rax)
     56c: 00 00                        	addb	%al, (%rax)
     56e: 00 00                        	addb	%al, (%rax)
     570: 48 60                        	<unknown>
     572: 00 00                        	addb	%al, (%rax)
     574: 00 00                        	addb	%al, (%rax)
     576: 00 00                        	addb	%al, (%rax)
     578: d8 5f 00                     	fcomps	(%rdi)
     57b: 00 00                        	addb	%al, (%rax)
     57d: 00 00                        	addb	%al, (%rax)
     57f: 00 06                        	addb	%al, (%rsi)
     581: 00 00                        	addb	%al, (%rax)
     583: 00 01                        	addb	%al, (%rcx)
		...
     58d: 00 00                        	addb	%al, (%rax)
     58f: 00 e0                        	addb	%ah, %al
     591: 5f                           	popq	%rdi
     592: 00 00                        	addb	%al, (%rax)
     594: 00 00                        	addb	%al, (%rax)
     596: 00 00                        	addb	%al, (%rax)
     598: 06                           	<unknown>
     599: 00 00                        	addb	%al, (%rax)
     59b: 00 04 00                     	addb	%al, (%rax,%rax)
		...
     5a6: 00 00                        	addb	%al, (%rax)
     5a8: e8 5f 00 00 00               	callq	95 <ladderjac.c+0x60c>
     5ad: 00 00                        	addb	%al, (%rax)
     5af: 00 06                        	addb	%al, (%rsi)
     5b1: 00 00                        	addb	%al, (%rax)
     5b3: 00 06                        	addb	%al, (%rsi)
		...
     5bd: 00 00                        	addb	%al, (%rax)
     5bf: 00 f0                        	addb	%dh, %al
     5c1: 5f                           	popq	%rdi
     5c2: 00 00                        	addb	%al, (%rax)
     5c4: 00 00                        	addb	%al, (%rax)
     5c6: 00 00                        	addb	%al, (%rax)
     5c8: 06                           	<unknown>
     5c9: 00 00                        	addb	%al, (%rax)
     5cb: 00 09                        	addb	%cl, (%rcx)
		...
     5d5: 00 00                        	addb	%al, (%rax)
     5d7: 00 f8                        	addb	%bh, %al
     5d9: 5f                           	popq	%rdi
     5da: 00 00                        	addb	%al, (%rax)
     5dc: 00 00                        	addb	%al, (%rax)
     5de: 00 00                        	addb	%al, (%rax)
     5e0: 06                           	<unknown>
     5e1: 00 00                        	addb	%al, (%rax)
     5e3: 00 0a                        	addb	%cl, (%rdx)
		...
     5ed: 00 00                        	addb	%al, (%rax)
     5ef: 00 60 60                     	addb	%ah, 96(%rax)
     5f2: 00 00                        	addb	%al, (%rax)
     5f4: 00 00                        	addb	%al, (%rax)
     5f6: 00 00                        	addb	%al, (%rax)
     5f8: 05 00 00 00 0b               	addl	$184549376, %eax
		...
     605: 00 00                        	addb	%al, (%rax)
     607: 00                           	<unknown>

Disassembly of section .rela.plt:

0000000000000608 .rela.plt:
     608: 18 60 00                     	sbbb	%ah, (%rax)
     60b: 00 00                        	addb	%al, (%rax)
     60d: 00 00                        	addb	%al, (%rax)
     60f: 00 07                        	addb	%al, (%rdi)
     611: 00 00                        	addb	%al, (%rax)
     613: 00 02                        	addb	%al, (%rdx)
		...
     61d: 00 00                        	addb	%al, (%rax)
     61f: 00 20                        	addb	%ah, (%rax)
     621: 60                           	<unknown>
     622: 00 00                        	addb	%al, (%rax)
     624: 00 00                        	addb	%al, (%rax)
     626: 00 00                        	addb	%al, (%rax)
     628: 07                           	<unknown>
     629: 00 00                        	addb	%al, (%rax)
     62b: 00 03                        	addb	%al, (%rbx)
		...
     635: 00 00                        	addb	%al, (%rax)
     637: 00 28                        	addb	%ch, (%rax)
     639: 60                           	<unknown>
     63a: 00 00                        	addb	%al, (%rax)
     63c: 00 00                        	addb	%al, (%rax)
     63e: 00 00                        	addb	%al, (%rax)
     640: 07                           	<unknown>
     641: 00 00                        	addb	%al, (%rax)
     643: 00 05 00 00 00 00            	addb	%al, (%rip)
     649: 00 00                        	addb	%al, (%rax)
     64b: 00 00                        	addb	%al, (%rax)
     64d: 00 00                        	addb	%al, (%rax)
     64f: 00 30                        	addb	%dh, (%rax)
     651: 60                           	<unknown>
     652: 00 00                        	addb	%al, (%rax)
     654: 00 00                        	addb	%al, (%rax)
     656: 00 00                        	addb	%al, (%rax)
     658: 07                           	<unknown>
     659: 00 00                        	addb	%al, (%rax)
     65b: 00 07                        	addb	%al, (%rdi)
		...
     665: 00 00                        	addb	%al, (%rax)
     667: 00 38                        	addb	%bh, (%rax)
     669: 60                           	<unknown>
     66a: 00 00                        	addb	%al, (%rax)
     66c: 00 00                        	addb	%al, (%rax)
     66e: 00 00                        	addb	%al, (%rax)
     670: 07                           	<unknown>
     671: 00 00                        	addb	%al, (%rax)
     673: 00 08                        	addb	%cl, (%rax)
		...
     67d: 00 00                        	addb	%al, (%rax)
     67f: 00                           	<unknown>

Disassembly of section .init:

0000000000001000 _init:
    1000: 48 83 ec 08                  	subq	$8, %rsp
    1004: 48 8b 05 dd 4f 00 00         	movq	20445(%rip), %rax
    100b: 48 85 c0                     	testq	%rax, %rax
    100e: 74 02                        	je	2 <_init+0x12>
    1010: ff d0                        	callq	*%rax
    1012: 48 83 c4 08                  	addq	$8, %rsp
    1016: c3                           	retq

Disassembly of section .plt:

0000000000001020 .plt:
    1020: ff 35 e2 4f 00 00            	pushq	20450(%rip)
    1026: ff 25 e4 4f 00 00            	jmpq	*20452(%rip)
    102c: 0f 1f 40 00                  	nopl	(%rax)

0000000000001030 fclose@plt:
    1030: ff 25 e2 4f 00 00            	jmpq	*20450(%rip)
    1036: 68 00 00 00 00               	pushq	$0
    103b: e9 e0 ff ff ff               	jmp	-32 <.plt>

0000000000001040 fputc@plt:
    1040: ff 25 da 4f 00 00            	jmpq	*20442(%rip)
    1046: 68 01 00 00 00               	pushq	$1
    104b: e9 d0 ff ff ff               	jmp	-48 <.plt>

0000000000001050 fprintf@plt:
    1050: ff 25 d2 4f 00 00            	jmpq	*20434(%rip)
    1056: 68 02 00 00 00               	pushq	$2
    105b: e9 c0 ff ff ff               	jmp	-64 <.plt>

0000000000001060 fopen@plt:
    1060: ff 25 ca 4f 00 00            	jmpq	*20426(%rip)
    1066: 68 03 00 00 00               	pushq	$3
    106b: e9 b0 ff ff ff               	jmp	-80 <.plt>

0000000000001070 fwrite@plt:
    1070: ff 25 c2 4f 00 00            	jmpq	*20418(%rip)
    1076: 68 04 00 00 00               	pushq	$4
    107b: e9 a0 ff ff ff               	jmp	-96 <.plt>

Disassembly of section .plt.got:

0000000000001080 .plt.got:
    1080: ff 25 72 4f 00 00            	jmpq	*20338(%rip)
    1086: 66 90                        	nop

Disassembly of section .text:

00000000000010c0 main:
    10c0: 41 56                        	pushq	%r14
    10c2: 66 0f ef c0                  	pxor	%xmm0, %xmm0
    10c6: 41 55                        	pushq	%r13
    10c8: 41 54                        	pushq	%r12
    10ca: 55                           	pushq	%rbp
    10cb: 53                           	pushq	%rbx
    10cc: 48 83 ec 70                  	subq	$112, %rsp
    10d0: 0f 29 04 24                  	movaps	%xmm0, (%rsp)
    10d4: 0f 29 44 24 10               	movaps	%xmm0, 16(%rsp)
    10d9: c6 44 24 20 00               	movb	$0, 32(%rsp)
    10de: 83 ff 02                     	cmpl	$2, %edi
    10e1: 74 3b                        	je	59 <main+0x5e>
    10e3: 48 8b 0d 76 4f 00 00         	movq	20342(%rip), %rcx
    10ea: ba 11 00 00 00               	movl	$17, %edx
    10ef: be 01 00 00 00               	movl	$1, %esi
    10f4: 31 ed                        	xorl	%ebp, %ebp
    10f6: 48 8d 3d 07 2f 00 00         	leaq	12039(%rip), %rdi
    10fd: bb 01 00 00 00               	movl	$1, %ebx
    1102: e8 69 ff ff ff               	callq	-151 <fwrite@plt>
    1107: 48 89 ef                     	movq	%rbp, %rdi
    110a: e8 21 ff ff ff               	callq	-223 <fclose@plt>
    110f: 48 83 c4 70                  	addq	$112, %rsp
    1113: 89 d8                        	movl	%ebx, %eax
    1115: 5b                           	popq	%rbx
    1116: 5d                           	popq	%rbp
    1117: 41 5c                        	popq	%r12
    1119: 41 5d                        	popq	%r13
    111b: 41 5e                        	popq	%r14
    111d: c3                           	retq
    111e: 48 8b 7e 08                  	movq	8(%rsi), %rdi
    1122: 49 89 e4                     	movq	%rsp, %r12
    1125: ba 20 00 00 00               	movl	$32, %edx
    112a: 4c 8d 74 24 30               	leaq	48(%rsp), %r14
    112f: 4c 89 e6                     	movq	%r12, %rsi
    1132: e8 a9 1f 00 00               	callq	8105 <hexToBytes>
    1137: 4c 89 e6                     	movq	%r12, %rsi
    113a: 4c 89 f7                     	movq	%r14, %rdi
    113d: e8 fe 01 00 00               	callq	510 <ladder_jac>
    1142: 48 8d 35 cd 2e 00 00         	leaq	11981(%rip), %rsi
    1149: 48 8d 3d c8 2e 00 00         	leaq	11976(%rip), %rdi
    1150: e8 0b ff ff ff               	callq	-245 <fopen@plt>
    1155: 48 89 c5                     	movq	%rax, %rbp
    1158: 48 85 c0                     	testq	%rax, %rax
    115b: 0f 84 a3 00 00 00            	je	163 <main+0x144>
    1161: 49 8d 5c 24 1f               	leaq	31(%r12), %rbx
    1166: 4c 8d 2d b6 2e 00 00         	leaq	11958(%rip), %r13
    116d: eb 04                        	jmp	4 <main+0xb3>
    116f: 90                           	nop
    1170: 48 89 c3                     	movq	%rax, %rbx
    1173: 0f b6 13                     	movzbl	(%rbx), %edx
    1176: 4c 89 ee                     	movq	%r13, %rsi
    1179: 48 89 ef                     	movq	%rbp, %rdi
    117c: 31 c0                        	xorl	%eax, %eax
    117e: e8 cd fe ff ff               	callq	-307 <fprintf@plt>
    1183: 48 8d 43 ff                  	leaq	-1(%rbx), %rax
    1187: 4c 39 e3                     	cmpq	%r12, %rbx
    118a: 75 e4                        	jne	-28 <main+0xb0>
    118c: 48 89 ee                     	movq	%rbp, %rsi
    118f: bf 2c 00 00 00               	movl	$44, %edi
    1194: 4c 8d 64 24 10               	leaq	16(%rsp), %r12
    1199: 4c 89 f3                     	movq	%r14, %rbx
    119c: e8 9f fe ff ff               	callq	-353 <fputc@plt>
    11a1: 4c 8d 2d 80 2e 00 00         	leaq	11904(%rip), %r13
    11a8: 48 8b 53 18                  	movq	24(%rbx), %rdx
    11ac: 4c 89 ee                     	movq	%r13, %rsi
    11af: 48 89 ef                     	movq	%rbp, %rdi
    11b2: 31 c0                        	xorl	%eax, %eax
    11b4: 48 83 eb 08                  	subq	$8, %rbx
    11b8: e8 93 fe ff ff               	callq	-365 <fprintf@plt>
    11bd: 4c 39 e3                     	cmpq	%r12, %rbx
    11c0: 75 e6                        	jne	-26 <main+0xe8>
    11c2: 48 89 ee                     	movq	%rbp, %rsi
    11c5: bf 2c 00 00 00               	movl	$44, %edi
    11ca: 48 8d 1d 57 2e 00 00         	leaq	11863(%rip), %rbx
    11d1: e8 6a fe ff ff               	callq	-406 <fputc@plt>
    11d6: 49 8b 56 38                  	movq	56(%r14), %rdx
    11da: 48 89 de                     	movq	%rbx, %rsi
    11dd: 48 89 ef                     	movq	%rbp, %rdi
    11e0: 31 c0                        	xorl	%eax, %eax
    11e2: 49 83 ee 08                  	subq	$8, %r14
    11e6: e8 65 fe ff ff               	callq	-411 <fprintf@plt>
    11eb: 4d 39 e6                     	cmpq	%r12, %r14
    11ee: 75 e6                        	jne	-26 <main+0x116>
    11f0: 48 89 ee                     	movq	%rbp, %rsi
    11f3: bf 0a 00 00 00               	movl	$10, %edi
    11f8: 31 db                        	xorl	%ebx, %ebx
    11fa: e8 41 fe ff ff               	callq	-447 <fputc@plt>
    11ff: e9 03 ff ff ff               	jmp	-253 <main+0x47>
    1204: bb 01 00 00 00               	movl	$1, %ebx
    1209: e9 f9 fe ff ff               	jmp	-263 <main+0x47>
    120e: 66 90                        	nop

0000000000001210 _start:
    1210: 31 ed                        	xorl	%ebp, %ebp
    1212: 49 89 d1                     	movq	%rdx, %r9
    1215: 5e                           	popq	%rsi
    1216: 48 89 e2                     	movq	%rsp, %rdx
    1219: 48 83 e4 f0                  	andq	$-16, %rsp
    121d: 50                           	pushq	%rax
    121e: 54                           	pushq	%rsp
    121f: 4c 8d 05 ba 1f 00 00         	leaq	8122(%rip), %r8
    1226: 48 8d 0d 53 1f 00 00         	leaq	8019(%rip), %rcx
    122d: 48 8d 3d 8c fe ff ff         	leaq	-372(%rip), %rdi
    1234: ff 15 a6 4d 00 00            	callq	*19878(%rip)
    123a: f4                           	hlt
    123b: 0f 1f 44 00 00               	nopl	(%rax,%rax)

0000000000001240 deregister_tm_clones:
    1240: 48 8d 3d 09 4e 00 00         	leaq	19977(%rip), %rdi
    1247: 48 8d 05 02 4e 00 00         	leaq	19970(%rip), %rax
    124e: 48 39 f8                     	cmpq	%rdi, %rax
    1251: 74 15                        	je	21 <deregister_tm_clones+0x28>
    1253: 48 8b 05 7e 4d 00 00         	movq	19838(%rip), %rax
    125a: 48 85 c0                     	testq	%rax, %rax
    125d: 74 09                        	je	9 <deregister_tm_clones+0x28>
    125f: ff e0                        	jmpq	*%rax
    1261: 0f 1f 80 00 00 00 00         	nopl	(%rax)
    1268: c3                           	retq
    1269: 0f 1f 80 00 00 00 00         	nopl	(%rax)

0000000000001270 register_tm_clones:
    1270: 48 8d 3d d9 4d 00 00         	leaq	19929(%rip), %rdi
    1277: 48 8d 35 d2 4d 00 00         	leaq	19922(%rip), %rsi
    127e: 48 29 fe                     	subq	%rdi, %rsi
    1281: 48 c1 fe 03                  	sarq	$3, %rsi
    1285: 48 89 f0                     	movq	%rsi, %rax
    1288: 48 c1 e8 3f                  	shrq	$63, %rax
    128c: 48 01 c6                     	addq	%rax, %rsi
    128f: 48 d1 fe                     	sarq	%rsi
    1292: 74 14                        	je	20 <register_tm_clones+0x38>
    1294: 48 8b 05 55 4d 00 00         	movq	19797(%rip), %rax
    129b: 48 85 c0                     	testq	%rax, %rax
    129e: 74 08                        	je	8 <register_tm_clones+0x38>
    12a0: ff e0                        	jmpq	*%rax
    12a2: 66 0f 1f 44 00 00            	nopw	(%rax,%rax)
    12a8: c3                           	retq
    12a9: 0f 1f 80 00 00 00 00         	nopl	(%rax)

00000000000012b0 __do_global_dtors_aux:
    12b0: 80 3d b1 4d 00 00 00         	cmpb	$0, 19889(%rip)
    12b7: 75 2f                        	jne	47 <__do_global_dtors_aux+0x38>
    12b9: 55                           	pushq	%rbp
    12ba: 48 83 3d 36 4d 00 00 00      	cmpq	$0, 19766(%rip)
    12c2: 48 89 e5                     	movq	%rsp, %rbp
    12c5: 74 0c                        	je	12 <__do_global_dtors_aux+0x23>
    12c7: 48 8b 3d 7a 4d 00 00         	movq	19834(%rip), %rdi
    12ce: e8 ad fd ff ff               	callq	-595 <.plt.got>
    12d3: e8 68 ff ff ff               	callq	-152 <deregister_tm_clones>
    12d8: c6 05 89 4d 00 00 01         	movb	$1, 19849(%rip)
    12df: 5d                           	popq	%rbp
    12e0: c3                           	retq
    12e1: 0f 1f 80 00 00 00 00         	nopl	(%rax)
    12e8: c3                           	retq
    12e9: 0f 1f 80 00 00 00 00         	nopl	(%rax)

00000000000012f0 frame_dummy:
    12f0: e9 7b ff ff ff               	jmp	-133 <register_tm_clones>
    12f5: 66 2e 0f 1f 84 00 00 00 00 00	nopw	%cs:(%rax,%rax)
    12ff: 90                           	nop

0000000000001300 point_conditional_swap:
    1300: 41 54                        	pushq	%r12
    1302: 41 89 fc                     	movl	%edi, %r12d
    1305: 55                           	pushq	%rbp
    1306: 48 89 d5                     	movq	%rdx, %rbp
    1309: 53                           	pushq	%rbx
    130a: 48 89 f3                     	movq	%rsi, %rbx
    130d: e8 ae 1c 00 00               	callq	7342 <bn_conditional_swap>
    1312: 48 8d 55 20                  	leaq	32(%rbp), %rdx
    1316: 48 8d 73 20                  	leaq	32(%rbx), %rsi
    131a: 44 89 e7                     	movl	%r12d, %edi
    131d: e8 9e 1c 00 00               	callq	7326 <bn_conditional_swap>
    1322: 48 8d 55 40                  	leaq	64(%rbp), %rdx
    1326: 48 8d 73 40                  	leaq	64(%rbx), %rsi
    132a: 44 89 e7                     	movl	%r12d, %edi
    132d: 5b                           	popq	%rbx
    132e: 5d                           	popq	%rbp
    132f: 41 5c                        	popq	%r12
    1331: e9 8a 1c 00 00               	jmp	7306 <bn_conditional_swap>
    1336: 66 2e 0f 1f 84 00 00 00 00 00	nopw	%cs:(%rax,%rax)

0000000000001340 ladder_jac:
    1340: 41 57                        	pushq	%r15
    1342: 66 0f ef c0                  	pxor	%xmm0, %xmm0
    1346: 48 8d 15 f3 2c 00 00         	leaq	11507(%rip), %rdx
    134d: 41 bf ff 00 00 00            	movl	$255, %r15d
    1353: 41 56                        	pushq	%r14
    1355: 41 55                        	pushq	%r13
    1357: 41 54                        	pushq	%r12
    1359: 55                           	pushq	%rbp
    135a: 31 ed                        	xorl	%ebp, %ebp
    135c: 53                           	pushq	%rbx
    135d: 48 81 ec d8 01 00 00         	subq	$472, %rsp
    1364: 48 8d 84 24 b0 00 00 00      	leaq	176(%rsp), %rax
    136c: 48 8d 9c 24 e0 00 00 00      	leaq	224(%rsp), %rbx
    1374: 48 89 7c 24 28               	movq	%rdi, 40(%rsp)
    1379: 49 89 c6                     	movq	%rax, %r14
    137c: 48 89 c7                     	movq	%rax, %rdi
    137f: 48 89 44 24 20               	movq	%rax, 32(%rsp)
    1384: 4c 8d a4 24 70 01 00 00      	leaq	368(%rsp), %r12
    138c: 0f 29 84 24 b0 00 00 00      	movaps	%xmm0, 176(%rsp)
    1394: 0f 29 84 24 c0 00 00 00      	movaps	%xmm0, 192(%rsp)
    139c: 0f 29 84 24 e0 00 00 00      	movaps	%xmm0, 224(%rsp)
    13a4: 0f 29 84 24 f0 00 00 00      	movaps	%xmm0, 240(%rsp)
    13ac: c6 84 24 d0 00 00 00 00      	movb	$0, 208(%rsp)
    13b4: c6 84 24 00 01 00 00 00      	movb	$0, 256(%rsp)
    13bc: e8 bf 1a 00 00               	callq	6847 <bn_add>
    13c1: 48 89 df                     	movq	%rbx, %rdi
    13c4: 48 8d 15 75 2c 00 00         	leaq	11381(%rip), %rdx
    13cb: 4c 89 f6                     	movq	%r14, %rsi
    13ce: e8 ad 1a 00 00               	callq	6829 <bn_add>
    13d3: 48 89 d9                     	movq	%rbx, %rcx
    13d6: 4c 89 f2                     	movq	%r14, %rdx
    13d9: 4c 89 f6                     	movq	%r14, %rsi
    13dc: 0f b6 bc 24 d0 00 00 00      	movzbl	208(%rsp), %edi
    13e4: 48 8d 9c 24 10 01 00 00      	leaq	272(%rsp), %rbx
    13ec: e8 bf 1a 00 00               	callq	6847 <bn_conditional_selection>
    13f1: f3 0f 6f 0d a7 2c 00 00      	movdqu	11431(%rip), %xmm1
    13f9: 48 89 de                     	movq	%rbx, %rsi
    13fc: f3 0f 6f 15 ac 2c 00 00      	movdqu	11436(%rip), %xmm2
    1404: f3 0f 6f 1d 74 2c 00 00      	movdqu	11380(%rip), %xmm3
    140c: f3 0f 6f 25 7c 2c 00 00      	movdqu	11388(%rip), %xmm4
    1414: 4c 89 e7                     	movq	%r12, %rdi
    1417: f3 0f 6f 2d a1 2c 00 00      	movdqu	11425(%rip), %xmm5
    141f: f3 0f 6f 35 a9 2c 00 00      	movdqu	11433(%rip), %xmm6
    1427: 0f 29 8c 24 10 01 00 00      	movaps	%xmm1, 272(%rsp)
    142f: 0f 29 94 24 20 01 00 00      	movaps	%xmm2, 288(%rsp)
    1437: 0f 29 9c 24 30 01 00 00      	movaps	%xmm3, 304(%rsp)
    143f: 0f 29 a4 24 40 01 00 00      	movaps	%xmm4, 320(%rsp)
    1447: 0f 29 ac 24 50 01 00 00      	movaps	%xmm5, 336(%rsp)
    144f: 0f 29 b4 24 60 01 00 00      	movaps	%xmm6, 352(%rsp)
    1457: e8 44 0d 00 00               	callq	3396 <ecp_nistz256_point_double>
    145c: 49 8d 44 24 20               	leaq	32(%r12), %rax
    1461: 48 89 44 24 10               	movq	%rax, 16(%rsp)
    1466: 66 2e 0f 1f 84 00 00 00 00 00	nopw	%cs:(%rax,%rax)
    1470: 48 8b 7c 24 20               	movq	32(%rsp), %rdi
    1475: 44 89 fe                     	movl	%r15d, %esi
    1478: 4c 8d 6b 20                  	leaq	32(%rbx), %r13
    147c: 4c 8d 73 40                  	leaq	64(%rbx), %r14
    1480: 41 83 ef 01                  	subl	$1, %r15d
    1484: e8 07 1b 00 00               	callq	6919 <bn_is_bit_set>
    1489: 4c 89 e2                     	movq	%r12, %rdx
    148c: 48 89 de                     	movq	%rbx, %rsi
    148f: 31 c5                        	xorl	%eax, %ebp
    1491: 89 44 24 0c                  	movl	%eax, 12(%rsp)
    1495: 89 ef                        	movl	%ebp, %edi
    1497: e8 24 1b 00 00               	callq	6948 <bn_conditional_swap>
    149c: 48 8b 54 24 10               	movq	16(%rsp), %rdx
    14a1: 89 ef                        	movl	%ebp, %edi
    14a3: 4c 89 ee                     	movq	%r13, %rsi
    14a6: e8 15 1b 00 00               	callq	6933 <bn_conditional_swap>
    14ab: 49 8d 44 24 40               	leaq	64(%r12), %rax
    14b0: 89 ef                        	movl	%ebp, %edi
    14b2: 4c 89 f6                     	movq	%r14, %rsi
    14b5: 48 89 c2                     	movq	%rax, %rdx
    14b8: 48 89 44 24 18               	movq	%rax, 24(%rsp)
    14bd: e8 fe 1a 00 00               	callq	6910 <bn_conditional_swap>
    14c2: 4c 89 e2                     	movq	%r12, %rdx
    14c5: 48 89 de                     	movq	%rbx, %rsi
    14c8: 4c 89 e7                     	movq	%r12, %rdi
    14cb: e8 d0 0f 00 00               	callq	4048 <ecp_nistz256_point_add>
    14d0: 48 89 de                     	movq	%rbx, %rsi
    14d3: 48 89 df                     	movq	%rbx, %rdi
    14d6: e8 c5 0c 00 00               	callq	3269 <ecp_nistz256_point_double>
    14db: 8b 44 24 0c                  	movl	12(%rsp), %eax
    14df: 89 c5                        	movl	%eax, %ebp
    14e1: 41 83 ff ff                  	cmpl	$-1, %r15d
    14e5: 75 89                        	jne	-119 <ladder_jac+0x130>
    14e7: 89 c7                        	movl	%eax, %edi
    14e9: 4c 89 e2                     	movq	%r12, %rdx
    14ec: 4c 8d 64 24 30               	leaq	48(%rsp), %r12
    14f1: 48 89 de                     	movq	%rbx, %rsi
    14f4: e8 c7 1a 00 00               	callq	6855 <bn_conditional_swap>
    14f9: 48 8b 54 24 10               	movq	16(%rsp), %rdx
    14fe: 4c 89 ee                     	movq	%r13, %rsi
    1501: 89 ef                        	movl	%ebp, %edi
    1503: e8 b8 1a 00 00               	callq	6840 <bn_conditional_swap>
    1508: 48 8b 54 24 18               	movq	24(%rsp), %rdx
    150d: 4c 89 f6                     	movq	%r14, %rsi
    1510: 89 ef                        	movl	%ebp, %edi
    1512: 48 8d 6c 24 50               	leaq	80(%rsp), %rbp
    1517: e8 a4 1a 00 00               	callq	6820 <bn_conditional_swap>
    151c: 4c 89 f6                     	movq	%r14, %rsi
    151f: 48 89 ef                     	movq	%rbp, %rdi
    1522: 4c 8d 74 24 70               	leaq	112(%rsp), %r14
    1527: e8 a4 16 00 00               	callq	5796 <ecp_nistz256_mod_inverse>
    152c: 48 89 ee                     	movq	%rbp, %rsi
    152f: 4c 89 e7                     	movq	%r12, %rdi
    1532: e8 e9 07 00 00               	callq	2025 <ecp_nistz256_sqr_mont>
    1537: 48 89 ea                     	movq	%rbp, %rdx
    153a: 4c 89 e6                     	movq	%r12, %rsi
    153d: 48 89 ef                     	movq	%rbp, %rdi
    1540: e8 3b 05 00 00               	callq	1339 <ecp_nistz256_mul_mont>
    1545: 48 89 da                     	movq	%rbx, %rdx
    1548: 4c 89 e6                     	movq	%r12, %rsi
    154b: 4c 89 f7                     	movq	%r14, %rdi
    154e: e8 2d 05 00 00               	callq	1325 <ecp_nistz256_mul_mont>
    1553: 48 8d 9c 24 90 00 00 00      	leaq	144(%rsp), %rbx
    155b: 4c 89 ea                     	movq	%r13, %rdx
    155e: 48 89 ee                     	movq	%rbp, %rsi
    1561: 48 89 df                     	movq	%rbx, %rdi
    1564: e8 17 05 00 00               	callq	1303 <ecp_nistz256_mul_mont>
    1569: 4c 89 f6                     	movq	%r14, %rsi
    156c: 4c 8b 74 24 28               	movq	40(%rsp), %r14
    1571: 4c 89 f7                     	movq	%r14, %rdi
    1574: e8 c7 09 00 00               	callq	2503 <ecp_nistz256_from_mont>
    1579: 4c 89 f7                     	movq	%r14, %rdi
    157c: 48 89 de                     	movq	%rbx, %rsi
    157f: 48 83 c7 20                  	addq	$32, %rdi
    1583: e8 b8 09 00 00               	callq	2488 <ecp_nistz256_from_mont>
    1588: 48 81 c4 d8 01 00 00         	addq	$472, %rsp
    158f: 5b                           	popq	%rbx
    1590: 5d                           	popq	%rbp
    1591: 41 5c                        	popq	%r12
    1593: 41 5d                        	popq	%r13
    1595: 41 5e                        	popq	%r14
    1597: 41 5f                        	popq	%r15
    1599: c3                           	retq
    159a: 66 2e 0f 1f 84 00 00 00 00 00	nopw	%cs:(%rax,%rax)
    15a4: 66 2e 0f 1f 84 00 00 00 00 00	nopw	%cs:(%rax,%rax)
    15ae: 66 2e 0f 1f 84 00 00 00 00 00	nopw	%cs:(%rax,%rax)
    15b8: 0f 1f 84 00 00 00 00 00      	nopl	(%rax,%rax)
    15c0: ff ff                        	<unknown>
    15c2: ff ff                        	<unknown>
    15c4: ff ff                        	<unknown>
    15c6: ff ff                        	<unknown>
    15c8: ff ff                        	<unknown>
    15ca: ff ff                        	<unknown>
		...
    15d8: 01 00                        	addl	%eax, (%rax)
    15da: 00 00                        	addb	%al, (%rax)
    15dc: ff ff                        	<unknown>
    15de: ff ff                        	<unknown>
    15e0: 03 00                        	addl	(%rax), %eax
    15e2: 00 00                        	addb	%al, (%rax)
    15e4: 00 00                        	addb	%al, (%rax)
    15e6: 00 00                        	addb	%al, (%rax)
    15e8: ff ff                        	<unknown>
    15ea: ff ff                        	<unknown>
    15ec: fb                           	sti
    15ed: ff ff                        	<unknown>
    15ef: ff fe                        	<unknown>
    15f1: ff ff                        	<unknown>
    15f3: ff ff                        	<unknown>
    15f5: ff ff                        	<unknown>
    15f7: ff fd                        	<unknown>
    15f9: ff ff                        	<unknown>
    15fb: ff 04 00                     	incl	(%rax,%rax)
    15fe: 00 00                        	addb	%al, (%rax)
    1600: 01 00                        	addl	%eax, (%rax)
    1602: 00 00                        	addb	%al, (%rax)
    1604: 01 00                        	addl	%eax, (%rax)
    1606: 00 00                        	addb	%al, (%rax)
    1608: 01 00                        	addl	%eax, (%rax)
    160a: 00 00                        	addb	%al, (%rax)
    160c: 01 00                        	addl	%eax, (%rax)
    160e: 00 00                        	addb	%al, (%rax)
    1610: 01 00                        	addl	%eax, (%rax)
    1612: 00 00                        	addb	%al, (%rax)
    1614: 01 00                        	addl	%eax, (%rax)
    1616: 00 00                        	addb	%al, (%rax)
    1618: 01 00                        	addl	%eax, (%rax)
    161a: 00 00                        	addb	%al, (%rax)
    161c: 01 00                        	addl	%eax, (%rax)
    161e: 00 00                        	addb	%al, (%rax)
    1620: 02 00                        	addb	(%rax), %al
    1622: 00 00                        	addb	%al, (%rax)
    1624: 02 00                        	addb	(%rax), %al
    1626: 00 00                        	addb	%al, (%rax)
    1628: 02 00                        	addb	(%rax), %al
    162a: 00 00                        	addb	%al, (%rax)
    162c: 02 00                        	addb	(%rax), %al
    162e: 00 00                        	addb	%al, (%rax)
    1630: 02 00                        	addb	(%rax), %al
    1632: 00 00                        	addb	%al, (%rax)
    1634: 02 00                        	addb	(%rax), %al
    1636: 00 00                        	addb	%al, (%rax)
    1638: 02 00                        	addb	(%rax), %al
    163a: 00 00                        	addb	%al, (%rax)
    163c: 02 00                        	addb	(%rax), %al
    163e: 00 00                        	addb	%al, (%rax)
    1640: 03 00                        	addl	(%rax), %eax
    1642: 00 00                        	addb	%al, (%rax)
    1644: 03 00                        	addl	(%rax), %eax
    1646: 00 00                        	addb	%al, (%rax)
    1648: 03 00                        	addl	(%rax), %eax
    164a: 00 00                        	addb	%al, (%rax)
    164c: 03 00                        	addl	(%rax), %eax
    164e: 00 00                        	addb	%al, (%rax)
    1650: 03 00                        	addl	(%rax), %eax
    1652: 00 00                        	addb	%al, (%rax)
    1654: 03 00                        	addl	(%rax), %eax
    1656: 00 00                        	addb	%al, (%rax)
    1658: 03 00                        	addl	(%rax), %eax
    165a: 00 00                        	addb	%al, (%rax)
    165c: 03 00                        	addl	(%rax), %eax
    165e: 00 00                        	addb	%al, (%rax)
    1660: 01 00                        	addl	%eax, (%rax)
		...
    166a: 00 00                        	addb	%al, (%rax)
    166c: ff ff                        	<unknown>
    166e: ff ff                        	<unknown>
    1670: ff ff                        	<unknown>
    1672: ff ff                        	<unknown>
    1674: ff ff                        	<unknown>
    1676: ff ff                        	<unknown>
    1678: fe ff                        	<unknown>
    167a: ff ff                        	<unknown>
    167c: 00 00                        	addb	%al, (%rax)
    167e: 00 00                        	addb	%al, (%rax)
    1680: 51                           	pushq	%rcx
    1681: 25 63 fc c2 ca               	andl	$3401776227, %eax
    1686: b9 f3 84 9e 17               	movl	$396264691, %ecx
    168b: a7                           	cmpsl	%es:(%rdi), (%rsi)
    168c: ad                           	lodsl	(%rsi), %eax
    168d: fa                           	cli
    168e: e6 bc                        	outb	%al, $188
    1690: ff ff                        	<unknown>
    1692: ff ff                        	<unknown>
    1694: ff ff                        	<unknown>
    1696: ff ff                        	<unknown>
    1698: 00 00                        	addb	%al, (%rax)
    169a: 00 00                        	addb	%al, (%rax)
    169c: ff ff                        	<unknown>
    169e: ff ff                        	<unknown>
    16a0: 4f bc 00 ee aa c8 d1 cc 66 66	movabsq	$7378810240880012800, %r12
    16aa: 2e 0f 1f 84 00 00 00 00 00   	nopl	%cs:(%rax,%rax)
    16b3: 66 66 2e 0f 1f 84 00 00 00 00 00     	nopw	%cs:(%rax,%rax)
    16be: 66 90                        	nop

00000000000016c0 ecp_nistz256_mul_by_2:
    16c0: 41 54                        	pushq	%r12
    16c2: 41 55                        	pushq	%r13
    16c4: 4c 8b 06                     	movq	(%rsi), %r8
    16c7: 4d 31 ed                     	xorq	%r13, %r13
    16ca: 4c 8b 4e 08                  	movq	8(%rsi), %r9
    16ce: 4d 01 c0                     	addq	%r8, %r8
    16d1: 4c 8b 56 10                  	movq	16(%rsi), %r10
    16d5: 4d 11 c9                     	adcq	%r9, %r9
    16d8: 4c 8b 5e 18                  	movq	24(%rsi), %r11
    16dc: 48 8d 35 dd fe ff ff         	leaq	-291(%rip), %rsi
    16e3: 4c 89 c0                     	movq	%r8, %rax
    16e6: 4d 11 d2                     	adcq	%r10, %r10
    16e9: 4d 11 db                     	adcq	%r11, %r11
    16ec: 4c 89 ca                     	movq	%r9, %rdx
    16ef: 49 83 d5 00                  	adcq	$0, %r13
    16f3: 4c 2b 06                     	subq	(%rsi), %r8
    16f6: 4c 89 d1                     	movq	%r10, %rcx
    16f9: 4c 1b 4e 08                  	sbbq	8(%rsi), %r9
    16fd: 4c 1b 56 10                  	sbbq	16(%rsi), %r10
    1701: 4d 89 dc                     	movq	%r11, %r12
    1704: 4c 1b 5e 18                  	sbbq	24(%rsi), %r11
    1708: 49 83 dd 00                  	sbbq	$0, %r13
    170c: 4c 0f 42 c0                  	cmovbq	%rax, %r8
    1710: 4c 0f 42 ca                  	cmovbq	%rdx, %r9
    1714: 4c 89 07                     	movq	%r8, (%rdi)
    1717: 4c 0f 42 d1                  	cmovbq	%rcx, %r10
    171b: 4c 89 4f 08                  	movq	%r9, 8(%rdi)
    171f: 4d 0f 42 dc                  	cmovbq	%r12, %r11
    1723: 4c 89 57 10                  	movq	%r10, 16(%rdi)
    1727: 4c 89 5f 18                  	movq	%r11, 24(%rdi)
    172b: 4c 8b 2c 24                  	movq	(%rsp), %r13
    172f: 4c 8b 64 24 08               	movq	8(%rsp), %r12
    1734: 48 8d 64 24 10               	leaq	16(%rsp), %rsp
    1739: f3 c3                        	rep		retq
    173b: 0f 1f 44 00 00               	nopl	(%rax,%rax)

0000000000001740 ecp_nistz256_div_by_2:
    1740: 41 54                        	pushq	%r12
    1742: 41 55                        	pushq	%r13
    1744: 4c 8b 06                     	movq	(%rsi), %r8
    1747: 4c 8b 4e 08                  	movq	8(%rsi), %r9
    174b: 4c 8b 56 10                  	movq	16(%rsi), %r10
    174f: 4c 89 c0                     	movq	%r8, %rax
    1752: 4c 8b 5e 18                  	movq	24(%rsi), %r11
    1756: 48 8d 35 63 fe ff ff         	leaq	-413(%rip), %rsi
    175d: 4c 89 ca                     	movq	%r9, %rdx
    1760: 4d 31 ed                     	xorq	%r13, %r13
    1763: 4c 03 06                     	addq	(%rsi), %r8
    1766: 4c 89 d1                     	movq	%r10, %rcx
    1769: 4c 13 4e 08                  	adcq	8(%rsi), %r9
    176d: 4c 13 56 10                  	adcq	16(%rsi), %r10
    1771: 4d 89 dc                     	movq	%r11, %r12
    1774: 4c 13 5e 18                  	adcq	24(%rsi), %r11
    1778: 49 83 d5 00                  	adcq	$0, %r13
    177c: 48 31 f6                     	xorq	%rsi, %rsi
    177f: 48 a9 01 00 00 00            	testq	$1, %rax
    1785: 4c 0f 44 c0                  	cmoveq	%rax, %r8
    1789: 4c 0f 44 ca                  	cmoveq	%rdx, %r9
    178d: 4c 0f 44 d1                  	cmoveq	%rcx, %r10
    1791: 4d 0f 44 dc                  	cmoveq	%r12, %r11
    1795: 4c 0f 44 ee                  	cmoveq	%rsi, %r13
    1799: 4c 89 c8                     	movq	%r9, %rax
    179c: 49 d1 e8                     	shrq	%r8
    179f: 48 c1 e0 3f                  	shlq	$63, %rax
    17a3: 4c 89 d2                     	movq	%r10, %rdx
    17a6: 49 d1 e9                     	shrq	%r9
    17a9: 49 09 c0                     	orq	%rax, %r8
    17ac: 48 c1 e2 3f                  	shlq	$63, %rdx
    17b0: 4c 89 d9                     	movq	%r11, %rcx
    17b3: 49 d1 ea                     	shrq	%r10
    17b6: 49 09 d1                     	orq	%rdx, %r9
    17b9: 48 c1 e1 3f                  	shlq	$63, %rcx
    17bd: 49 d1 eb                     	shrq	%r11
    17c0: 49 c1 e5 3f                  	shlq	$63, %r13
    17c4: 49 09 ca                     	orq	%rcx, %r10
    17c7: 4d 09 eb                     	orq	%r13, %r11
    17ca: 4c 89 07                     	movq	%r8, (%rdi)
    17cd: 4c 89 4f 08                  	movq	%r9, 8(%rdi)
    17d1: 4c 89 57 10                  	movq	%r10, 16(%rdi)
    17d5: 4c 89 5f 18                  	movq	%r11, 24(%rdi)
    17d9: 4c 8b 2c 24                  	movq	(%rsp), %r13
    17dd: 4c 8b 64 24 08               	movq	8(%rsp), %r12
    17e2: 48 8d 64 24 10               	leaq	16(%rsp), %rsp
    17e7: f3 c3                        	rep		retq
    17e9: 66 66 2e 0f 1f 84 00 00 00 00 00     	nopw	%cs:(%rax,%rax)
    17f4: 66 66 2e 0f 1f 84 00 00 00 00 00     	nopw	%cs:(%rax,%rax)
    17ff: 90                           	nop

0000000000001800 ecp_nistz256_mul_by_3:
    1800: 41 54                        	pushq	%r12
    1802: 41 55                        	pushq	%r13
    1804: 4c 8b 06                     	movq	(%rsi), %r8
    1807: 4d 31 ed                     	xorq	%r13, %r13
    180a: 4c 8b 4e 08                  	movq	8(%rsi), %r9
    180e: 4d 01 c0                     	addq	%r8, %r8
    1811: 4c 8b 56 10                  	movq	16(%rsi), %r10
    1815: 4d 11 c9                     	adcq	%r9, %r9
    1818: 4c 8b 5e 18                  	movq	24(%rsi), %r11
    181c: 4c 89 c0                     	movq	%r8, %rax
    181f: 4d 11 d2                     	adcq	%r10, %r10
    1822: 4d 11 db                     	adcq	%r11, %r11
    1825: 4c 89 ca                     	movq	%r9, %rdx
    1828: 49 83 d5 00                  	adcq	$0, %r13
    182c: 49 83 e8 ff                  	subq	$-1, %r8
    1830: 4c 89 d1                     	movq	%r10, %rcx
    1833: 4c 1b 0d 8e fd ff ff         	sbbq	-626(%rip), %r9
    183a: 49 83 da 00                  	sbbq	$0, %r10
    183e: 4d 89 dc                     	movq	%r11, %r12
    1841: 4c 1b 1d 90 fd ff ff         	sbbq	-624(%rip), %r11
    1848: 49 83 dd 00                  	sbbq	$0, %r13
    184c: 4c 0f 42 c0                  	cmovbq	%rax, %r8
    1850: 4c 0f 42 ca                  	cmovbq	%rdx, %r9
    1854: 4c 0f 42 d1                  	cmovbq	%rcx, %r10
    1858: 4d 0f 42 dc                  	cmovbq	%r12, %r11
    185c: 4d 31 ed                     	xorq	%r13, %r13
    185f: 4c 03 06                     	addq	(%rsi), %r8
    1862: 4c 13 4e 08                  	adcq	8(%rsi), %r9
    1866: 4c 89 c0                     	movq	%r8, %rax
    1869: 4c 13 56 10                  	adcq	16(%rsi), %r10
    186d: 4c 13 5e 18                  	adcq	24(%rsi), %r11
    1871: 4c 89 ca                     	movq	%r9, %rdx
    1874: 49 83 d5 00                  	adcq	$0, %r13
    1878: 49 83 e8 ff                  	subq	$-1, %r8
    187c: 4c 89 d1                     	movq	%r10, %rcx
    187f: 4c 1b 0d 42 fd ff ff         	sbbq	-702(%rip), %r9
    1886: 49 83 da 00                  	sbbq	$0, %r10
    188a: 4d 89 dc                     	movq	%r11, %r12
    188d: 4c 1b 1d 44 fd ff ff         	sbbq	-700(%rip), %r11
    1894: 49 83 dd 00                  	sbbq	$0, %r13
    1898: 4c 0f 42 c0                  	cmovbq	%rax, %r8
    189c: 4c 0f 42 ca                  	cmovbq	%rdx, %r9
    18a0: 4c 89 07                     	movq	%r8, (%rdi)
    18a3: 4c 0f 42 d1                  	cmovbq	%rcx, %r10
    18a7: 4c 89 4f 08                  	movq	%r9, 8(%rdi)
    18ab: 4d 0f 42 dc                  	cmovbq	%r12, %r11
    18af: 4c 89 57 10                  	movq	%r10, 16(%rdi)
    18b3: 4c 89 5f 18                  	movq	%r11, 24(%rdi)
    18b7: 4c 8b 2c 24                  	movq	(%rsp), %r13
    18bb: 4c 8b 64 24 08               	movq	8(%rsp), %r12
    18c0: 48 8d 64 24 10               	leaq	16(%rsp), %rsp
    18c5: f3 c3                        	rep		retq
    18c7: 66 66 2e 0f 1f 84 00 00 00 00 00     	nopw	%cs:(%rax,%rax)
    18d2: 66 66 2e 0f 1f 84 00 00 00 00 00     	nopw	%cs:(%rax,%rax)
    18dd: 0f 1f 00                     	nopl	(%rax)

00000000000018e0 ecp_nistz256_add:
    18e0: 41 54                        	pushq	%r12
    18e2: 41 55                        	pushq	%r13
    18e4: 4c 8b 06                     	movq	(%rsi), %r8
    18e7: 4d 31 ed                     	xorq	%r13, %r13
    18ea: 4c 8b 4e 08                  	movq	8(%rsi), %r9
    18ee: 4c 8b 56 10                  	movq	16(%rsi), %r10
    18f2: 4c 8b 5e 18                  	movq	24(%rsi), %r11
    18f6: 48 8d 35 c3 fc ff ff         	leaq	-829(%rip), %rsi
    18fd: 4c 03 02                     	addq	(%rdx), %r8
    1900: 4c 13 4a 08                  	adcq	8(%rdx), %r9
    1904: 4c 89 c0                     	movq	%r8, %rax
    1907: 4c 13 52 10                  	adcq	16(%rdx), %r10
    190b: 4c 13 5a 18                  	adcq	24(%rdx), %r11
    190f: 4c 89 ca                     	movq	%r9, %rdx
    1912: 49 83 d5 00                  	adcq	$0, %r13
    1916: 4c 2b 06                     	subq	(%rsi), %r8
    1919: 4c 89 d1                     	movq	%r10, %rcx
    191c: 4c 1b 4e 08                  	sbbq	8(%rsi), %r9
    1920: 4c 1b 56 10                  	sbbq	16(%rsi), %r10
    1924: 4d 89 dc                     	movq	%r11, %r12
    1927: 4c 1b 5e 18                  	sbbq	24(%rsi), %r11
    192b: 49 83 dd 00                  	sbbq	$0, %r13
    192f: 4c 0f 42 c0                  	cmovbq	%rax, %r8
    1933: 4c 0f 42 ca                  	cmovbq	%rdx, %r9
    1937: 4c 89 07                     	movq	%r8, (%rdi)
    193a: 4c 0f 42 d1                  	cmovbq	%rcx, %r10
    193e: 4c 89 4f 08                  	movq	%r9, 8(%rdi)
    1942: 4d 0f 42 dc                  	cmovbq	%r12, %r11
    1946: 4c 89 57 10                  	movq	%r10, 16(%rdi)
    194a: 4c 89 5f 18                  	movq	%r11, 24(%rdi)
    194e: 4c 8b 2c 24                  	movq	(%rsp), %r13
    1952: 4c 8b 64 24 08               	movq	8(%rsp), %r12
    1957: 48 8d 64 24 10               	leaq	16(%rsp), %rsp
    195c: f3 c3                        	rep		retq
    195e: 66 90                        	nop

0000000000001960 ecp_nistz256_sub:
    1960: 41 54                        	pushq	%r12
    1962: 41 55                        	pushq	%r13
    1964: 4c 8b 06                     	movq	(%rsi), %r8
    1967: 4d 31 ed                     	xorq	%r13, %r13
    196a: 4c 8b 4e 08                  	movq	8(%rsi), %r9
    196e: 4c 8b 56 10                  	movq	16(%rsi), %r10
    1972: 4c 8b 5e 18                  	movq	24(%rsi), %r11
    1976: 48 8d 35 43 fc ff ff         	leaq	-957(%rip), %rsi
    197d: 4c 2b 02                     	subq	(%rdx), %r8
    1980: 4c 1b 4a 08                  	sbbq	8(%rdx), %r9
    1984: 4c 89 c0                     	movq	%r8, %rax
    1987: 4c 1b 52 10                  	sbbq	16(%rdx), %r10
    198b: 4c 1b 5a 18                  	sbbq	24(%rdx), %r11
    198f: 4c 89 ca                     	movq	%r9, %rdx
    1992: 49 83 dd 00                  	sbbq	$0, %r13
    1996: 4c 03 06                     	addq	(%rsi), %r8
    1999: 4c 89 d1                     	movq	%r10, %rcx
    199c: 4c 13 4e 08                  	adcq	8(%rsi), %r9
    19a0: 4c 13 56 10                  	adcq	16(%rsi), %r10
    19a4: 4d 89 dc                     	movq	%r11, %r12
    19a7: 4c 13 5e 18                  	adcq	24(%rsi), %r11
    19ab: 4d 85 ed                     	testq	%r13, %r13
    19ae: 4c 0f 44 c0                  	cmoveq	%rax, %r8
    19b2: 4c 0f 44 ca                  	cmoveq	%rdx, %r9
    19b6: 4c 89 07                     	movq	%r8, (%rdi)
    19b9: 4c 0f 44 d1                  	cmoveq	%rcx, %r10
    19bd: 4c 89 4f 08                  	movq	%r9, 8(%rdi)
    19c1: 4d 0f 44 dc                  	cmoveq	%r12, %r11
    19c5: 4c 89 57 10                  	movq	%r10, 16(%rdi)
    19c9: 4c 89 5f 18                  	movq	%r11, 24(%rdi)
    19cd: 4c 8b 2c 24                  	movq	(%rsp), %r13
    19d1: 4c 8b 64 24 08               	movq	8(%rsp), %r12
    19d6: 48 8d 64 24 10               	leaq	16(%rsp), %rsp
    19db: f3 c3                        	rep		retq
    19dd: 0f 1f 00                     	nopl	(%rax)

00000000000019e0 ecp_nistz256_neg:
    19e0: 41 54                        	pushq	%r12
    19e2: 41 55                        	pushq	%r13
    19e4: 4d 31 c0                     	xorq	%r8, %r8
    19e7: 4d 31 c9                     	xorq	%r9, %r9
    19ea: 4d 31 d2                     	xorq	%r10, %r10
    19ed: 4d 31 db                     	xorq	%r11, %r11
    19f0: 4d 31 ed                     	xorq	%r13, %r13
    19f3: 4c 2b 06                     	subq	(%rsi), %r8
    19f6: 4c 1b 4e 08                  	sbbq	8(%rsi), %r9
    19fa: 4c 1b 56 10                  	sbbq	16(%rsi), %r10
    19fe: 4c 89 c0                     	movq	%r8, %rax
    1a01: 4c 1b 5e 18                  	sbbq	24(%rsi), %r11
    1a05: 48 8d 35 b4 fb ff ff         	leaq	-1100(%rip), %rsi
    1a0c: 4c 89 ca                     	movq	%r9, %rdx
    1a0f: 49 83 dd 00                  	sbbq	$0, %r13
    1a13: 4c 03 06                     	addq	(%rsi), %r8
    1a16: 4c 89 d1                     	movq	%r10, %rcx
    1a19: 4c 13 4e 08                  	adcq	8(%rsi), %r9
    1a1d: 4c 13 56 10                  	adcq	16(%rsi), %r10
    1a21: 4d 89 dc                     	movq	%r11, %r12
    1a24: 4c 13 5e 18                  	adcq	24(%rsi), %r11
    1a28: 4d 85 ed                     	testq	%r13, %r13
    1a2b: 4c 0f 44 c0                  	cmoveq	%rax, %r8
    1a2f: 4c 0f 44 ca                  	cmoveq	%rdx, %r9
    1a33: 4c 89 07                     	movq	%r8, (%rdi)
    1a36: 4c 0f 44 d1                  	cmoveq	%rcx, %r10
    1a3a: 4c 89 4f 08                  	movq	%r9, 8(%rdi)
    1a3e: 4d 0f 44 dc                  	cmoveq	%r12, %r11
    1a42: 4c 89 57 10                  	movq	%r10, 16(%rdi)
    1a46: 4c 89 5f 18                  	movq	%r11, 24(%rdi)
    1a4a: 4c 8b 2c 24                  	movq	(%rsp), %r13
    1a4e: 4c 8b 64 24 08               	movq	8(%rsp), %r12
    1a53: 48 8d 64 24 10               	leaq	16(%rsp), %rsp
    1a58: f3 c3                        	rep		retq
    1a5a: 66 0f 1f 44 00 00            	nopw	(%rax,%rax)

0000000000001a60 ecp_nistz256_to_mont:
    1a60: 48 8d 15 79 fb ff ff         	leaq	-1159(%rip), %rdx
    1a67: eb 17                        	jmp	23 <ecp_nistz256_mul_mont>
    1a69: 66 66 2e 0f 1f 84 00 00 00 00 00     	nopw	%cs:(%rax,%rax)
    1a74: 66 66 2e 0f 1f 84 00 00 00 00 00     	nopw	%cs:(%rax,%rax)
    1a7f: 90                           	nop

0000000000001a80 ecp_nistz256_mul_mont:
    1a80: 55                           	pushq	%rbp
    1a81: 53                           	pushq	%rbx
    1a82: 41 54                        	pushq	%r12
    1a84: 41 55                        	pushq	%r13
    1a86: 41 56                        	pushq	%r14
    1a88: 41 57                        	pushq	%r15
    1a8a: 48 89 d3                     	movq	%rdx, %rbx
    1a8d: 48 8b 02                     	movq	(%rdx), %rax
    1a90: 4c 8b 0e                     	movq	(%rsi), %r9
    1a93: 4c 8b 56 08                  	movq	8(%rsi), %r10
    1a97: 4c 8b 5e 10                  	movq	16(%rsi), %r11
    1a9b: 4c 8b 66 18                  	movq	24(%rsi), %r12
    1a9f: e8 3c 00 00 00               	callq	60 <__ecp_nistz256_mul_montq>
    1aa4: 4c 8b 3c 24                  	movq	(%rsp), %r15
    1aa8: 4c 8b 74 24 08               	movq	8(%rsp), %r14
    1aad: 4c 8b 6c 24 10               	movq	16(%rsp), %r13
    1ab2: 4c 8b 64 24 18               	movq	24(%rsp), %r12
    1ab7: 48 8b 5c 24 20               	movq	32(%rsp), %rbx
    1abc: 48 8b 6c 24 28               	movq	40(%rsp), %rbp
    1ac1: 48 8d 64 24 30               	leaq	48(%rsp), %rsp
    1ac6: f3 c3                        	rep		retq
    1ac8: 66 66 2e 0f 1f 84 00 00 00 00 00     	nopw	%cs:(%rax,%rax)
    1ad3: 66 66 2e 0f 1f 84 00 00 00 00 00     	nopw	%cs:(%rax,%rax)
    1ade: 66 90                        	nop

0000000000001ae0 __ecp_nistz256_mul_montq:
    1ae0: 48 89 c5                     	movq	%rax, %rbp
    1ae3: 49 f7 e1                     	mulq	%r9
    1ae6: 4c 8b 35 db fa ff ff         	movq	-1317(%rip), %r14
    1aed: 49 89 c0                     	movq	%rax, %r8
    1af0: 48 89 e8                     	movq	%rbp, %rax
    1af3: 49 89 d1                     	movq	%rdx, %r9
    1af6: 49 f7 e2                     	mulq	%r10
    1af9: 4c 8b 3d d8 fa ff ff         	movq	-1320(%rip), %r15
    1b00: 49 01 c1                     	addq	%rax, %r9
    1b03: 48 89 e8                     	movq	%rbp, %rax
    1b06: 48 83 d2 00                  	adcq	$0, %rdx
    1b0a: 49 89 d2                     	movq	%rdx, %r10
    1b0d: 49 f7 e3                     	mulq	%r11
    1b10: 49 01 c2                     	addq	%rax, %r10
    1b13: 48 89 e8                     	movq	%rbp, %rax
    1b16: 48 83 d2 00                  	adcq	$0, %rdx
    1b1a: 49 89 d3                     	movq	%rdx, %r11
    1b1d: 49 f7 e4                     	mulq	%r12
    1b20: 49 01 c3                     	addq	%rax, %r11
    1b23: 4c 89 c0                     	movq	%r8, %rax
    1b26: 48 83 d2 00                  	adcq	$0, %rdx
    1b2a: 4d 31 ed                     	xorq	%r13, %r13
    1b2d: 49 89 d4                     	movq	%rdx, %r12
    1b30: 4c 89 c5                     	movq	%r8, %rbp
    1b33: 49 c1 e0 20                  	shlq	$32, %r8
    1b37: 49 f7 e7                     	mulq	%r15
    1b3a: 48 c1 ed 20                  	shrq	$32, %rbp
    1b3e: 4d 01 c1                     	addq	%r8, %r9
    1b41: 49 11 ea                     	adcq	%rbp, %r10
    1b44: 49 11 c3                     	adcq	%rax, %r11
    1b47: 48 8b 43 08                  	movq	8(%rbx), %rax
    1b4b: 49 11 d4                     	adcq	%rdx, %r12
    1b4e: 49 83 d5 00                  	adcq	$0, %r13
    1b52: 4d 31 c0                     	xorq	%r8, %r8
    1b55: 48 89 c5                     	movq	%rax, %rbp
    1b58: 48 f7 26                     	mulq	(%rsi)
    1b5b: 49 01 c1                     	addq	%rax, %r9
    1b5e: 48 89 e8                     	movq	%rbp, %rax
    1b61: 48 83 d2 00                  	adcq	$0, %rdx
    1b65: 48 89 d1                     	movq	%rdx, %rcx
    1b68: 48 f7 66 08                  	mulq	8(%rsi)
    1b6c: 49 01 ca                     	addq	%rcx, %r10
    1b6f: 48 83 d2 00                  	adcq	$0, %rdx
    1b73: 49 01 c2                     	addq	%rax, %r10
    1b76: 48 89 e8                     	movq	%rbp, %rax
    1b79: 48 83 d2 00                  	adcq	$0, %rdx
    1b7d: 48 89 d1                     	movq	%rdx, %rcx
    1b80: 48 f7 66 10                  	mulq	16(%rsi)
    1b84: 49 01 cb                     	addq	%rcx, %r11
    1b87: 48 83 d2 00                  	adcq	$0, %rdx
    1b8b: 49 01 c3                     	addq	%rax, %r11
    1b8e: 48 89 e8                     	movq	%rbp, %rax
    1b91: 48 83 d2 00                  	adcq	$0, %rdx
    1b95: 48 89 d1                     	movq	%rdx, %rcx
    1b98: 48 f7 66 18                  	mulq	24(%rsi)
    1b9c: 49 01 cc                     	addq	%rcx, %r12
    1b9f: 48 83 d2 00                  	adcq	$0, %rdx
    1ba3: 49 01 c4                     	addq	%rax, %r12
    1ba6: 4c 89 c8                     	movq	%r9, %rax
    1ba9: 49 11 d5                     	adcq	%rdx, %r13
    1bac: 49 83 d0 00                  	adcq	$0, %r8
    1bb0: 4c 89 cd                     	movq	%r9, %rbp
    1bb3: 49 c1 e1 20                  	shlq	$32, %r9
    1bb7: 49 f7 e7                     	mulq	%r15
    1bba: 48 c1 ed 20                  	shrq	$32, %rbp
    1bbe: 4d 01 ca                     	addq	%r9, %r10
    1bc1: 49 11 eb                     	adcq	%rbp, %r11
    1bc4: 49 11 c4                     	adcq	%rax, %r12
    1bc7: 48 8b 43 10                  	movq	16(%rbx), %rax
    1bcb: 49 11 d5                     	adcq	%rdx, %r13
    1bce: 49 83 d0 00                  	adcq	$0, %r8
    1bd2: 4d 31 c9                     	xorq	%r9, %r9
    1bd5: 48 89 c5                     	movq	%rax, %rbp
    1bd8: 48 f7 26                     	mulq	(%rsi)
    1bdb: 49 01 c2                     	addq	%rax, %r10
    1bde: 48 89 e8                     	movq	%rbp, %rax
    1be1: 48 83 d2 00                  	adcq	$0, %rdx
    1be5: 48 89 d1                     	movq	%rdx, %rcx
    1be8: 48 f7 66 08                  	mulq	8(%rsi)
    1bec: 49 01 cb                     	addq	%rcx, %r11
    1bef: 48 83 d2 00                  	adcq	$0, %rdx
    1bf3: 49 01 c3                     	addq	%rax, %r11
    1bf6: 48 89 e8                     	movq	%rbp, %rax
    1bf9: 48 83 d2 00                  	adcq	$0, %rdx
    1bfd: 48 89 d1                     	movq	%rdx, %rcx
    1c00: 48 f7 66 10                  	mulq	16(%rsi)
    1c04: 49 01 cc                     	addq	%rcx, %r12
    1c07: 48 83 d2 00                  	adcq	$0, %rdx
    1c0b: 49 01 c4                     	addq	%rax, %r12
    1c0e: 48 89 e8                     	movq	%rbp, %rax
    1c11: 48 83 d2 00                  	adcq	$0, %rdx
    1c15: 48 89 d1                     	movq	%rdx, %rcx
    1c18: 48 f7 66 18                  	mulq	24(%rsi)
    1c1c: 49 01 cd                     	addq	%rcx, %r13
    1c1f: 48 83 d2 00                  	adcq	$0, %rdx
    1c23: 49 01 c5                     	addq	%rax, %r13
    1c26: 4c 89 d0                     	movq	%r10, %rax
    1c29: 49 11 d0                     	adcq	%rdx, %r8
    1c2c: 49 83 d1 00                  	adcq	$0, %r9
    1c30: 4c 89 d5                     	movq	%r10, %rbp
    1c33: 49 c1 e2 20                  	shlq	$32, %r10
    1c37: 49 f7 e7                     	mulq	%r15
    1c3a: 48 c1 ed 20                  	shrq	$32, %rbp
    1c3e: 4d 01 d3                     	addq	%r10, %r11
    1c41: 49 11 ec                     	adcq	%rbp, %r12
    1c44: 49 11 c5                     	adcq	%rax, %r13
    1c47: 48 8b 43 18                  	movq	24(%rbx), %rax
    1c4b: 49 11 d0                     	adcq	%rdx, %r8
    1c4e: 49 83 d1 00                  	adcq	$0, %r9
    1c52: 4d 31 d2                     	xorq	%r10, %r10
    1c55: 48 89 c5                     	movq	%rax, %rbp
    1c58: 48 f7 26                     	mulq	(%rsi)
    1c5b: 49 01 c3                     	addq	%rax, %r11
    1c5e: 48 89 e8                     	movq	%rbp, %rax
    1c61: 48 83 d2 00                  	adcq	$0, %rdx
    1c65: 48 89 d1                     	movq	%rdx, %rcx
    1c68: 48 f7 66 08                  	mulq	8(%rsi)
    1c6c: 49 01 cc                     	addq	%rcx, %r12
    1c6f: 48 83 d2 00                  	adcq	$0, %rdx
    1c73: 49 01 c4                     	addq	%rax, %r12
    1c76: 48 89 e8                     	movq	%rbp, %rax
    1c79: 48 83 d2 00                  	adcq	$0, %rdx
    1c7d: 48 89 d1                     	movq	%rdx, %rcx
    1c80: 48 f7 66 10                  	mulq	16(%rsi)
    1c84: 49 01 cd                     	addq	%rcx, %r13
    1c87: 48 83 d2 00                  	adcq	$0, %rdx
    1c8b: 49 01 c5                     	addq	%rax, %r13
    1c8e: 48 89 e8                     	movq	%rbp, %rax
    1c91: 48 83 d2 00                  	adcq	$0, %rdx
    1c95: 48 89 d1                     	movq	%rdx, %rcx
    1c98: 48 f7 66 18                  	mulq	24(%rsi)
    1c9c: 49 01 c8                     	addq	%rcx, %r8
    1c9f: 48 83 d2 00                  	adcq	$0, %rdx
    1ca3: 49 01 c0                     	addq	%rax, %r8
    1ca6: 4c 89 d8                     	movq	%r11, %rax
    1ca9: 49 11 d1                     	adcq	%rdx, %r9
    1cac: 49 83 d2 00                  	adcq	$0, %r10
    1cb0: 4c 89 dd                     	movq	%r11, %rbp
    1cb3: 49 c1 e3 20                  	shlq	$32, %r11
    1cb7: 49 f7 e7                     	mulq	%r15
    1cba: 48 c1 ed 20                  	shrq	$32, %rbp
    1cbe: 4d 01 dc                     	addq	%r11, %r12
    1cc1: 49 11 ed                     	adcq	%rbp, %r13
    1cc4: 4c 89 e1                     	movq	%r12, %rcx
    1cc7: 49 11 c0                     	adcq	%rax, %r8
    1cca: 49 11 d1                     	adcq	%rdx, %r9
    1ccd: 4c 89 ed                     	movq	%r13, %rbp
    1cd0: 49 83 d2 00                  	adcq	$0, %r10
    1cd4: 49 83 ec ff                  	subq	$-1, %r12
    1cd8: 4c 89 c3                     	movq	%r8, %rbx
    1cdb: 4d 19 f5                     	sbbq	%r14, %r13
    1cde: 49 83 d8 00                  	sbbq	$0, %r8
    1ce2: 4c 89 ca                     	movq	%r9, %rdx
    1ce5: 4d 19 f9                     	sbbq	%r15, %r9
    1ce8: 49 83 da 00                  	sbbq	$0, %r10
    1cec: 4c 0f 42 e1                  	cmovbq	%rcx, %r12
    1cf0: 4c 0f 42 ed                  	cmovbq	%rbp, %r13
    1cf4: 4c 89 27                     	movq	%r12, (%rdi)
    1cf7: 4c 0f 42 c3                  	cmovbq	%rbx, %r8
    1cfb: 4c 89 6f 08                  	movq	%r13, 8(%rdi)
    1cff: 4c 0f 42 ca                  	cmovbq	%rdx, %r9
    1d03: 4c 89 47 10                  	movq	%r8, 16(%rdi)
    1d07: 4c 89 4f 18                  	movq	%r9, 24(%rdi)
    1d0b: f3 c3                        	rep		retq
    1d0d: 66 66 2e 0f 1f 84 00 00 00 00 00     	nopw	%cs:(%rax,%rax)
    1d18: 0f 1f 84 00 00 00 00 00      	nopl	(%rax,%rax)

0000000000001d20 ecp_nistz256_sqr_mont:
    1d20: 55                           	pushq	%rbp
    1d21: 53                           	pushq	%rbx
    1d22: 41 54                        	pushq	%r12
    1d24: 41 55                        	pushq	%r13
    1d26: 41 56                        	pushq	%r14
    1d28: 41 57                        	pushq	%r15
    1d2a: 48 8b 06                     	movq	(%rsi), %rax
    1d2d: 4c 8b 76 08                  	movq	8(%rsi), %r14
    1d31: 4c 8b 7e 10                  	movq	16(%rsi), %r15
    1d35: 4c 8b 46 18                  	movq	24(%rsi), %r8
    1d39: e8 42 00 00 00               	callq	66 <__ecp_nistz256_sqr_montq>
    1d3e: 4c 8b 3c 24                  	movq	(%rsp), %r15
    1d42: 4c 8b 74 24 08               	movq	8(%rsp), %r14
    1d47: 4c 8b 6c 24 10               	movq	16(%rsp), %r13
    1d4c: 4c 8b 64 24 18               	movq	24(%rsp), %r12
    1d51: 48 8b 5c 24 20               	movq	32(%rsp), %rbx
    1d56: 48 8b 6c 24 28               	movq	40(%rsp), %rbp
    1d5b: 48 8d 64 24 30               	leaq	48(%rsp), %rsp
    1d60: f3 c3                        	rep		retq
    1d62: 66 66 2e 0f 1f 84 00 00 00 00 00     	nopw	%cs:(%rax,%rax)
    1d6d: 66 66 2e 0f 1f 84 00 00 00 00 00     	nopw	%cs:(%rax,%rax)
    1d78: 0f 1f 84 00 00 00 00 00      	nopl	(%rax,%rax)

0000000000001d80 __ecp_nistz256_sqr_montq:
    1d80: 49 89 c5                     	movq	%rax, %r13
    1d83: 49 f7 e6                     	mulq	%r14
    1d86: 49 89 c1                     	movq	%rax, %r9
    1d89: 4c 89 f8                     	movq	%r15, %rax
    1d8c: 49 89 d2                     	movq	%rdx, %r10
    1d8f: 49 f7 e5                     	mulq	%r13
    1d92: 49 01 c2                     	addq	%rax, %r10
    1d95: 4c 89 c0                     	movq	%r8, %rax
    1d98: 48 83 d2 00                  	adcq	$0, %rdx
    1d9c: 49 89 d3                     	movq	%rdx, %r11
    1d9f: 49 f7 e5                     	mulq	%r13
    1da2: 49 01 c3                     	addq	%rax, %r11
    1da5: 4c 89 f8                     	movq	%r15, %rax
    1da8: 48 83 d2 00                  	adcq	$0, %rdx
    1dac: 49 89 d4                     	movq	%rdx, %r12
    1daf: 49 f7 e6                     	mulq	%r14
    1db2: 49 01 c3                     	addq	%rax, %r11
    1db5: 4c 89 c0                     	movq	%r8, %rax
    1db8: 48 83 d2 00                  	adcq	$0, %rdx
    1dbc: 48 89 d5                     	movq	%rdx, %rbp
    1dbf: 49 f7 e6                     	mulq	%r14
    1dc2: 49 01 c4                     	addq	%rax, %r12
    1dc5: 4c 89 c0                     	movq	%r8, %rax
    1dc8: 48 83 d2 00                  	adcq	$0, %rdx
    1dcc: 49 01 ec                     	addq	%rbp, %r12
    1dcf: 49 89 d5                     	movq	%rdx, %r13
    1dd2: 49 83 d5 00                  	adcq	$0, %r13
    1dd6: 49 f7 e7                     	mulq	%r15
    1dd9: 4d 31 ff                     	xorq	%r15, %r15
    1ddc: 49 01 c5                     	addq	%rax, %r13
    1ddf: 48 8b 06                     	movq	(%rsi), %rax
    1de2: 49 89 d6                     	movq	%rdx, %r14
    1de5: 49 83 d6 00                  	adcq	$0, %r14
    1de9: 4d 01 c9                     	addq	%r9, %r9
    1dec: 4d 11 d2                     	adcq	%r10, %r10
    1def: 4d 11 db                     	adcq	%r11, %r11
    1df2: 4d 11 e4                     	adcq	%r12, %r12
    1df5: 4d 11 ed                     	adcq	%r13, %r13
    1df8: 4d 11 f6                     	adcq	%r14, %r14
    1dfb: 49 83 d7 00                  	adcq	$0, %r15
    1dff: 48 f7 e0                     	mulq	%rax
    1e02: 49 89 c0                     	movq	%rax, %r8
    1e05: 48 8b 46 08                  	movq	8(%rsi), %rax
    1e09: 48 89 d1                     	movq	%rdx, %rcx
    1e0c: 48 f7 e0                     	mulq	%rax
    1e0f: 49 01 c9                     	addq	%rcx, %r9
    1e12: 49 11 c2                     	adcq	%rax, %r10
    1e15: 48 8b 46 10                  	movq	16(%rsi), %rax
    1e19: 48 83 d2 00                  	adcq	$0, %rdx
    1e1d: 48 89 d1                     	movq	%rdx, %rcx
    1e20: 48 f7 e0                     	mulq	%rax
    1e23: 49 01 cb                     	addq	%rcx, %r11
    1e26: 49 11 c4                     	adcq	%rax, %r12
    1e29: 48 8b 46 18                  	movq	24(%rsi), %rax
    1e2d: 48 83 d2 00                  	adcq	$0, %rdx
    1e31: 48 89 d1                     	movq	%rdx, %rcx
    1e34: 48 f7 e0                     	mulq	%rax
    1e37: 49 01 cd                     	addq	%rcx, %r13
    1e3a: 49 11 c6                     	adcq	%rax, %r14
    1e3d: 4c 89 c0                     	movq	%r8, %rax
    1e40: 49 11 d7                     	adcq	%rdx, %r15
    1e43: 48 8b 35 7e f7 ff ff         	movq	-2178(%rip), %rsi
    1e4a: 48 8b 2d 87 f7 ff ff         	movq	-2169(%rip), %rbp
    1e51: 4c 89 c1                     	movq	%r8, %rcx
    1e54: 49 c1 e0 20                  	shlq	$32, %r8
    1e58: 48 f7 e5                     	mulq	%rbp
    1e5b: 48 c1 e9 20                  	shrq	$32, %rcx
    1e5f: 4d 01 c1                     	addq	%r8, %r9
    1e62: 49 11 ca                     	adcq	%rcx, %r10
    1e65: 49 11 c3                     	adcq	%rax, %r11
    1e68: 4c 89 c8                     	movq	%r9, %rax
    1e6b: 48 83 d2 00                  	adcq	$0, %rdx
    1e6f: 4c 89 c9                     	movq	%r9, %rcx
    1e72: 49 c1 e1 20                  	shlq	$32, %r9
    1e76: 49 89 d0                     	movq	%rdx, %r8
    1e79: 48 f7 e5                     	mulq	%rbp
    1e7c: 48 c1 e9 20                  	shrq	$32, %rcx
    1e80: 4d 01 ca                     	addq	%r9, %r10
    1e83: 49 11 cb                     	adcq	%rcx, %r11
    1e86: 49 11 c0                     	adcq	%rax, %r8
    1e89: 4c 89 d0                     	movq	%r10, %rax
    1e8c: 48 83 d2 00                  	adcq	$0, %rdx
    1e90: 4c 89 d1                     	movq	%r10, %rcx
    1e93: 49 c1 e2 20                  	shlq	$32, %r10
    1e97: 49 89 d1                     	movq	%rdx, %r9
    1e9a: 48 f7 e5                     	mulq	%rbp
    1e9d: 48 c1 e9 20                  	shrq	$32, %rcx
    1ea1: 4d 01 d3                     	addq	%r10, %r11
    1ea4: 49 11 c8                     	adcq	%rcx, %r8
    1ea7: 49 11 c1                     	adcq	%rax, %r9
    1eaa: 4c 89 d8                     	movq	%r11, %rax
    1ead: 48 83 d2 00                  	adcq	$0, %rdx
    1eb1: 4c 89 d9                     	movq	%r11, %rcx
    1eb4: 49 c1 e3 20                  	shlq	$32, %r11
    1eb8: 49 89 d2                     	movq	%rdx, %r10
    1ebb: 48 f7 e5                     	mulq	%rbp
    1ebe: 48 c1 e9 20                  	shrq	$32, %rcx
    1ec2: 4d 01 d8                     	addq	%r11, %r8
    1ec5: 49 11 c9                     	adcq	%rcx, %r9
    1ec8: 49 11 c2                     	adcq	%rax, %r10
    1ecb: 48 83 d2 00                  	adcq	$0, %rdx
    1ecf: 4d 31 db                     	xorq	%r11, %r11
    1ed2: 4d 01 c4                     	addq	%r8, %r12
    1ed5: 4d 11 cd                     	adcq	%r9, %r13
    1ed8: 4d 89 e0                     	movq	%r12, %r8
    1edb: 4d 11 d6                     	adcq	%r10, %r14
    1ede: 49 11 d7                     	adcq	%rdx, %r15
    1ee1: 4d 89 e9                     	movq	%r13, %r9
    1ee4: 49 83 d3 00                  	adcq	$0, %r11
    1ee8: 49 83 ec ff                  	subq	$-1, %r12
    1eec: 4d 89 f2                     	movq	%r14, %r10
    1eef: 49 19 f5                     	sbbq	%rsi, %r13
    1ef2: 49 83 de 00                  	sbbq	$0, %r14
    1ef6: 4c 89 f9                     	movq	%r15, %rcx
    1ef9: 49 19 ef                     	sbbq	%rbp, %r15
    1efc: 49 83 db 00                  	sbbq	$0, %r11
    1f00: 4d 0f 42 e0                  	cmovbq	%r8, %r12
    1f04: 4d 0f 42 e9                  	cmovbq	%r9, %r13
    1f08: 4c 89 27                     	movq	%r12, (%rdi)
    1f0b: 4d 0f 42 f2                  	cmovbq	%r10, %r14
    1f0f: 4c 89 6f 08                  	movq	%r13, 8(%rdi)
    1f13: 4c 0f 42 f9                  	cmovbq	%rcx, %r15
    1f17: 4c 89 77 10                  	movq	%r14, 16(%rdi)
    1f1b: 4c 89 7f 18                  	movq	%r15, 24(%rdi)
    1f1f: f3 c3                        	rep		retq
    1f21: 66 66 2e 0f 1f 84 00 00 00 00 00     	nopw	%cs:(%rax,%rax)
    1f2c: 66 66 2e 0f 1f 84 00 00 00 00 00     	nopw	%cs:(%rax,%rax)
    1f37: 66 0f 1f 84 00 00 00 00 00   	nopw	(%rax,%rax)

0000000000001f40 ecp_nistz256_from_mont:
    1f40: 41 54                        	pushq	%r12
    1f42: 41 55                        	pushq	%r13
    1f44: 48 8b 06                     	movq	(%rsi), %rax
    1f47: 4c 8b 2d 8a f6 ff ff         	movq	-2422(%rip), %r13
    1f4e: 4c 8b 4e 08                  	movq	8(%rsi), %r9
    1f52: 4c 8b 56 10                  	movq	16(%rsi), %r10
    1f56: 4c 8b 5e 18                  	movq	24(%rsi), %r11
    1f5a: 49 89 c0                     	movq	%rax, %r8
    1f5d: 4c 8b 25 64 f6 ff ff         	movq	-2460(%rip), %r12
    1f64: 48 89 c1                     	movq	%rax, %rcx
    1f67: 49 c1 e0 20                  	shlq	$32, %r8
    1f6b: 49 f7 e5                     	mulq	%r13
    1f6e: 48 c1 e9 20                  	shrq	$32, %rcx
    1f72: 4d 01 c1                     	addq	%r8, %r9
    1f75: 49 11 ca                     	adcq	%rcx, %r10
    1f78: 49 11 c3                     	adcq	%rax, %r11
    1f7b: 4c 89 c8                     	movq	%r9, %rax
    1f7e: 48 83 d2 00                  	adcq	$0, %rdx
    1f82: 4c 89 c9                     	movq	%r9, %rcx
    1f85: 49 c1 e1 20                  	shlq	$32, %r9
    1f89: 49 89 d0                     	movq	%rdx, %r8
    1f8c: 49 f7 e5                     	mulq	%r13
    1f8f: 48 c1 e9 20                  	shrq	$32, %rcx
    1f93: 4d 01 ca                     	addq	%r9, %r10
    1f96: 49 11 cb                     	adcq	%rcx, %r11
    1f99: 49 11 c0                     	adcq	%rax, %r8
    1f9c: 4c 89 d0                     	movq	%r10, %rax
    1f9f: 48 83 d2 00                  	adcq	$0, %rdx
    1fa3: 4c 89 d1                     	movq	%r10, %rcx
    1fa6: 49 c1 e2 20                  	shlq	$32, %r10
    1faa: 49 89 d1                     	movq	%rdx, %r9
    1fad: 49 f7 e5                     	mulq	%r13
    1fb0: 48 c1 e9 20                  	shrq	$32, %rcx
    1fb4: 4d 01 d3                     	addq	%r10, %r11
    1fb7: 49 11 c8                     	adcq	%rcx, %r8
    1fba: 49 11 c1                     	adcq	%rax, %r9
    1fbd: 4c 89 d8                     	movq	%r11, %rax
    1fc0: 48 83 d2 00                  	adcq	$0, %rdx
    1fc4: 4c 89 d9                     	movq	%r11, %rcx
    1fc7: 49 c1 e3 20                  	shlq	$32, %r11
    1fcb: 49 89 d2                     	movq	%rdx, %r10
    1fce: 49 f7 e5                     	mulq	%r13
    1fd1: 48 c1 e9 20                  	shrq	$32, %rcx
    1fd5: 4d 01 d8                     	addq	%r11, %r8
    1fd8: 49 11 c9                     	adcq	%rcx, %r9
    1fdb: 4c 89 c1                     	movq	%r8, %rcx
    1fde: 49 11 c2                     	adcq	%rax, %r10
    1fe1: 4c 89 ce                     	movq	%r9, %rsi
    1fe4: 48 83 d2 00                  	adcq	$0, %rdx
    1fe8: 49 83 e8 ff                  	subq	$-1, %r8
    1fec: 4c 89 d0                     	movq	%r10, %rax
    1fef: 4d 19 e1                     	sbbq	%r12, %r9
    1ff2: 49 83 da 00                  	sbbq	$0, %r10
    1ff6: 49 89 d3                     	movq	%rdx, %r11
    1ff9: 4c 19 ea                     	sbbq	%r13, %rdx
    1ffc: 4d 19 ed                     	sbbq	%r13, %r13
    1fff: 4c 0f 45 c1                  	cmovneq	%rcx, %r8
    2003: 4c 0f 45 ce                  	cmovneq	%rsi, %r9
    2007: 4c 89 07                     	movq	%r8, (%rdi)
    200a: 4c 0f 45 d0                  	cmovneq	%rax, %r10
    200e: 4c 89 4f 08                  	movq	%r9, 8(%rdi)
    2012: 4c 0f 44 da                  	cmoveq	%rdx, %r11
    2016: 4c 89 57 10                  	movq	%r10, 16(%rdi)
    201a: 4c 89 5f 18                  	movq	%r11, 24(%rdi)
    201e: 4c 8b 2c 24                  	movq	(%rsp), %r13
    2022: 4c 8b 64 24 08               	movq	8(%rsp), %r12
    2027: 48 8d 64 24 10               	leaq	16(%rsp), %rsp
    202c: f3 c3                        	rep		retq
    202e: 66 66 2e 0f 1f 84 00 00 00 00 00     	nopw	%cs:(%rax,%rax)
    2039: 0f 1f 80 00 00 00 00         	nopl	(%rax)

0000000000002040 __ecp_nistz256_add_toq:
    2040: 4d 31 db                     	xorq	%r11, %r11
    2043: 4c 03 23                     	addq	(%rbx), %r12
    2046: 4c 13 6b 08                  	adcq	8(%rbx), %r13
    204a: 4c 89 e0                     	movq	%r12, %rax
    204d: 4c 13 43 10                  	adcq	16(%rbx), %r8
    2051: 4c 13 4b 18                  	adcq	24(%rbx), %r9
    2055: 4c 89 ed                     	movq	%r13, %rbp
    2058: 49 83 d3 00                  	adcq	$0, %r11
    205c: 49 83 ec ff                  	subq	$-1, %r12
    2060: 4c 89 c1                     	movq	%r8, %rcx
    2063: 4d 19 f5                     	sbbq	%r14, %r13
    2066: 49 83 d8 00                  	sbbq	$0, %r8
    206a: 4d 89 ca                     	movq	%r9, %r10
    206d: 4d 19 f9                     	sbbq	%r15, %r9
    2070: 49 83 db 00                  	sbbq	$0, %r11
    2074: 4c 0f 42 e0                  	cmovbq	%rax, %r12
    2078: 4c 0f 42 ed                  	cmovbq	%rbp, %r13
    207c: 4c 89 27                     	movq	%r12, (%rdi)
    207f: 4c 0f 42 c1                  	cmovbq	%rcx, %r8
    2083: 4c 89 6f 08                  	movq	%r13, 8(%rdi)
    2087: 4d 0f 42 ca                  	cmovbq	%r10, %r9
    208b: 4c 89 47 10                  	movq	%r8, 16(%rdi)
    208f: 4c 89 4f 18                  	movq	%r9, 24(%rdi)
    2093: f3 c3                        	rep		retq
    2095: 66 66 2e 0f 1f 84 00 00 00 00 00     	nopw	%cs:(%rax,%rax)

00000000000020a0 __ecp_nistz256_sub_fromq:
    20a0: 4c 2b 23                     	subq	(%rbx), %r12
    20a3: 4c 1b 6b 08                  	sbbq	8(%rbx), %r13
    20a7: 4c 89 e0                     	movq	%r12, %rax
    20aa: 4c 1b 43 10                  	sbbq	16(%rbx), %r8
    20ae: 4c 1b 4b 18                  	sbbq	24(%rbx), %r9
    20b2: 4c 89 ed                     	movq	%r13, %rbp
    20b5: 4d 19 db                     	sbbq	%r11, %r11
    20b8: 49 83 c4 ff                  	addq	$-1, %r12
    20bc: 4c 89 c1                     	movq	%r8, %rcx
    20bf: 4d 11 f5                     	adcq	%r14, %r13
    20c2: 49 83 d0 00                  	adcq	$0, %r8
    20c6: 4d 89 ca                     	movq	%r9, %r10
    20c9: 4d 11 f9                     	adcq	%r15, %r9
    20cc: 4d 85 db                     	testq	%r11, %r11
    20cf: 4c 0f 44 e0                  	cmoveq	%rax, %r12
    20d3: 4c 0f 44 ed                  	cmoveq	%rbp, %r13
    20d7: 4c 89 27                     	movq	%r12, (%rdi)
    20da: 4c 0f 44 c1                  	cmoveq	%rcx, %r8
    20de: 4c 89 6f 08                  	movq	%r13, 8(%rdi)
    20e2: 4d 0f 44 ca                  	cmoveq	%r10, %r9
    20e6: 4c 89 47 10                  	movq	%r8, 16(%rdi)
    20ea: 4c 89 4f 18                  	movq	%r9, 24(%rdi)
    20ee: f3 c3                        	rep		retq
    20f0: 66 66 2e 0f 1f 84 00 00 00 00 00     	nopw	%cs:(%rax,%rax)
    20fb: 0f 1f 44 00 00               	nopl	(%rax,%rax)

0000000000002100 __ecp_nistz256_subq:
    2100: 4c 29 e0                     	subq	%r12, %rax
    2103: 4c 19 ed                     	sbbq	%r13, %rbp
    2106: 49 89 c4                     	movq	%rax, %r12
    2109: 4c 19 c1                     	sbbq	%r8, %rcx
    210c: 4d 19 ca                     	sbbq	%r9, %r10
    210f: 49 89 ed                     	movq	%rbp, %r13
    2112: 4d 19 db                     	sbbq	%r11, %r11
    2115: 48 83 c0 ff                  	addq	$-1, %rax
    2119: 49 89 c8                     	movq	%rcx, %r8
    211c: 4c 11 f5                     	adcq	%r14, %rbp
    211f: 48 83 d1 00                  	adcq	$0, %rcx
    2123: 4d 89 d1                     	movq	%r10, %r9
    2126: 4d 11 fa                     	adcq	%r15, %r10
    2129: 4d 85 db                     	testq	%r11, %r11
    212c: 4c 0f 45 e0                  	cmovneq	%rax, %r12
    2130: 4c 0f 45 ed                  	cmovneq	%rbp, %r13
    2134: 4c 0f 45 c1                  	cmovneq	%rcx, %r8
    2138: 4d 0f 45 ca                  	cmovneq	%r10, %r9
    213c: f3 c3                        	rep		retq
    213e: 66 90                        	nop

0000000000002140 __ecp_nistz256_mul_by_2q:
    2140: 4d 31 db                     	xorq	%r11, %r11
    2143: 4d 01 e4                     	addq	%r12, %r12
    2146: 4d 11 ed                     	adcq	%r13, %r13
    2149: 4c 89 e0                     	movq	%r12, %rax
    214c: 4d 11 c0                     	adcq	%r8, %r8
    214f: 4d 11 c9                     	adcq	%r9, %r9
    2152: 4c 89 ed                     	movq	%r13, %rbp
    2155: 49 83 d3 00                  	adcq	$0, %r11
    2159: 49 83 ec ff                  	subq	$-1, %r12
    215d: 4c 89 c1                     	movq	%r8, %rcx
    2160: 4d 19 f5                     	sbbq	%r14, %r13
    2163: 49 83 d8 00                  	sbbq	$0, %r8
    2167: 4d 89 ca                     	movq	%r9, %r10
    216a: 4d 19 f9                     	sbbq	%r15, %r9
    216d: 49 83 db 00                  	sbbq	$0, %r11
    2171: 4c 0f 42 e0                  	cmovbq	%rax, %r12
    2175: 4c 0f 42 ed                  	cmovbq	%rbp, %r13
    2179: 4c 89 27                     	movq	%r12, (%rdi)
    217c: 4c 0f 42 c1                  	cmovbq	%rcx, %r8
    2180: 4c 89 6f 08                  	movq	%r13, 8(%rdi)
    2184: 4d 0f 42 ca                  	cmovbq	%r10, %r9
    2188: 4c 89 47 10                  	movq	%r8, 16(%rdi)
    218c: 4c 89 4f 18                  	movq	%r9, 24(%rdi)
    2190: f3 c3                        	rep		retq
    2192: 66 66 2e 0f 1f 84 00 00 00 00 00     	nopw	%cs:(%rax,%rax)
    219d: 0f 1f 00                     	nopl	(%rax)

00000000000021a0 ecp_nistz256_point_double:
    21a0: 55                           	pushq	%rbp
    21a1: 53                           	pushq	%rbx
    21a2: 41 54                        	pushq	%r12
    21a4: 41 55                        	pushq	%r13
    21a6: 41 56                        	pushq	%r14
    21a8: 41 57                        	pushq	%r15
    21aa: 48 81 ec a8 00 00 00         	subq	$168, %rsp
    21b1: f3 0f 6f 06                  	movdqu	(%rsi), %xmm0
    21b5: 48 89 f3                     	movq	%rsi, %rbx
    21b8: f3 0f 6f 4e 10               	movdqu	16(%rsi), %xmm1
    21bd: 4c 8b 66 20                  	movq	32(%rsi), %r12
    21c1: 4c 8b 6e 28                  	movq	40(%rsi), %r13
    21c5: 4c 8b 46 30                  	movq	48(%rsi), %r8
    21c9: 4c 8b 4e 38                  	movq	56(%rsi), %r9
    21cd: 4c 8b 35 f4 f3 ff ff         	movq	-3084(%rip), %r14
    21d4: 4c 8b 3d fd f3 ff ff         	movq	-3075(%rip), %r15
    21db: 66 0f 7f 44 24 60            	movdqa	%xmm0, 96(%rsp)
    21e1: 66 0f 7f 4c 24 70            	movdqa	%xmm1, 112(%rsp)
    21e7: 4c 8d 57 20                  	leaq	32(%rdi), %r10
    21eb: 4c 8d 5f 40                  	leaq	64(%rdi), %r11
    21ef: 66 48 0f 6e c7               	movq	%rdi, %xmm0
    21f4: 66 49 0f 6e ca               	movq	%r10, %xmm1
    21f9: 66 49 0f 6e d3               	movq	%r11, %xmm2
    21fe: 48 8d 3c 24                  	leaq	(%rsp), %rdi
    2202: e8 39 ff ff ff               	callq	-199 <__ecp_nistz256_mul_by_2q>
    2207: 48 8b 46 40                  	movq	64(%rsi), %rax
    220b: 4c 8b 76 48                  	movq	72(%rsi), %r14
    220f: 4c 8b 7e 50                  	movq	80(%rsi), %r15
    2213: 4c 8b 46 58                  	movq	88(%rsi), %r8
    2217: 48 8d 76 40                  	leaq	64(%rsi), %rsi
    221b: 48 8d 7c 24 40               	leaq	64(%rsp), %rdi
    2220: e8 5b fb ff ff               	callq	-1189 <__ecp_nistz256_sqr_montq>
    2225: 48 8b 04 24                  	movq	(%rsp), %rax
    2229: 4c 8b 74 24 08               	movq	8(%rsp), %r14
    222e: 48 8d 34 24                  	leaq	(%rsp), %rsi
    2232: 4c 8b 7c 24 10               	movq	16(%rsp), %r15
    2237: 4c 8b 44 24 18               	movq	24(%rsp), %r8
    223c: 48 8d 3c 24                  	leaq	(%rsp), %rdi
    2240: e8 3b fb ff ff               	callq	-1221 <__ecp_nistz256_sqr_montq>
    2245: 48 8b 43 20                  	movq	32(%rbx), %rax
    2249: 4c 8b 4b 40                  	movq	64(%rbx), %r9
    224d: 4c 8b 53 48                  	movq	72(%rbx), %r10
    2251: 4c 8b 5b 50                  	movq	80(%rbx), %r11
    2255: 4c 8b 63 58                  	movq	88(%rbx), %r12
    2259: 48 8d 73 40                  	leaq	64(%rbx), %rsi
    225d: 48 8d 5b 20                  	leaq	32(%rbx), %rbx
    2261: 66 48 0f 7e d7               	movq	%xmm2, %rdi
    2266: e8 75 f8 ff ff               	callq	-1931 <__ecp_nistz256_mul_montq>
    226b: e8 d0 fe ff ff               	callq	-304 <__ecp_nistz256_mul_by_2q>
    2270: 4c 8b 64 24 60               	movq	96(%rsp), %r12
    2275: 4c 8b 6c 24 68               	movq	104(%rsp), %r13
    227a: 48 8d 5c 24 40               	leaq	64(%rsp), %rbx
    227f: 4c 8b 44 24 70               	movq	112(%rsp), %r8
    2284: 4c 8b 4c 24 78               	movq	120(%rsp), %r9
    2289: 48 8d 7c 24 20               	leaq	32(%rsp), %rdi
    228e: e8 ad fd ff ff               	callq	-595 <__ecp_nistz256_add_toq>
    2293: 4c 8b 64 24 60               	movq	96(%rsp), %r12
    2298: 4c 8b 6c 24 68               	movq	104(%rsp), %r13
    229d: 48 8d 5c 24 40               	leaq	64(%rsp), %rbx
    22a2: 4c 8b 44 24 70               	movq	112(%rsp), %r8
    22a7: 4c 8b 4c 24 78               	movq	120(%rsp), %r9
    22ac: 48 8d 7c 24 40               	leaq	64(%rsp), %rdi
    22b1: e8 ea fd ff ff               	callq	-534 <__ecp_nistz256_sub_fromq>
    22b6: 48 8b 04 24                  	movq	(%rsp), %rax
    22ba: 4c 8b 74 24 08               	movq	8(%rsp), %r14
    22bf: 48 8d 34 24                  	leaq	(%rsp), %rsi
    22c3: 4c 8b 7c 24 10               	movq	16(%rsp), %r15
    22c8: 4c 8b 44 24 18               	movq	24(%rsp), %r8
    22cd: 66 48 0f 7e cf               	movq	%xmm1, %rdi
    22d2: e8 a9 fa ff ff               	callq	-1367 <__ecp_nistz256_sqr_montq>
    22d7: 4d 31 c9                     	xorq	%r9, %r9
    22da: 4c 89 e0                     	movq	%r12, %rax
    22dd: 49 83 c4 ff                  	addq	$-1, %r12
    22e1: 4d 89 ea                     	movq	%r13, %r10
    22e4: 49 11 f5                     	adcq	%rsi, %r13
    22e7: 4c 89 f1                     	movq	%r14, %rcx
    22ea: 49 83 d6 00                  	adcq	$0, %r14
    22ee: 4d 89 f8                     	movq	%r15, %r8
    22f1: 49 11 ef                     	adcq	%rbp, %r15
    22f4: 49 83 d1 00                  	adcq	$0, %r9
    22f8: 48 31 f6                     	xorq	%rsi, %rsi
    22fb: 48 a9 01 00 00 00            	testq	$1, %rax
    2301: 4c 0f 44 e0                  	cmoveq	%rax, %r12
    2305: 4d 0f 44 ea                  	cmoveq	%r10, %r13
    2309: 4c 0f 44 f1                  	cmoveq	%rcx, %r14
    230d: 4d 0f 44 f8                  	cmoveq	%r8, %r15
    2311: 4c 0f 44 ce                  	cmoveq	%rsi, %r9
    2315: 4c 89 e8                     	movq	%r13, %rax
    2318: 49 d1 ec                     	shrq	%r12
    231b: 48 c1 e0 3f                  	shlq	$63, %rax
    231f: 4d 89 f2                     	movq	%r14, %r10
    2322: 49 d1 ed                     	shrq	%r13
    2325: 49 09 c4                     	orq	%rax, %r12
    2328: 49 c1 e2 3f                  	shlq	$63, %r10
    232c: 4c 89 f9                     	movq	%r15, %rcx
    232f: 49 d1 ee                     	shrq	%r14
    2332: 4d 09 d5                     	orq	%r10, %r13
    2335: 48 c1 e1 3f                  	shlq	$63, %rcx
    2339: 4c 89 27                     	movq	%r12, (%rdi)
    233c: 49 d1 ef                     	shrq	%r15
    233f: 4c 89 6f 08                  	movq	%r13, 8(%rdi)
    2343: 49 c1 e1 3f                  	shlq	$63, %r9
    2347: 49 09 ce                     	orq	%rcx, %r14
    234a: 4d 09 cf                     	orq	%r9, %r15
    234d: 4c 89 77 10                  	movq	%r14, 16(%rdi)
    2351: 4c 89 7f 18                  	movq	%r15, 24(%rdi)
    2355: 48 8b 44 24 40               	movq	64(%rsp), %rax
    235a: 48 8d 5c 24 40               	leaq	64(%rsp), %rbx
    235f: 4c 8b 4c 24 20               	movq	32(%rsp), %r9
    2364: 4c 8b 54 24 28               	movq	40(%rsp), %r10
    2369: 48 8d 74 24 20               	leaq	32(%rsp), %rsi
    236e: 4c 8b 5c 24 30               	movq	48(%rsp), %r11
    2373: 4c 8b 64 24 38               	movq	56(%rsp), %r12
    2378: 48 8d 7c 24 20               	leaq	32(%rsp), %rdi
    237d: e8 5e f7 ff ff               	callq	-2210 <__ecp_nistz256_mul_montq>
    2382: 48 8d bc 24 80 00 00 00      	leaq	128(%rsp), %rdi
    238a: e8 b1 fd ff ff               	callq	-591 <__ecp_nistz256_mul_by_2q>
    238f: 48 8d 5c 24 20               	leaq	32(%rsp), %rbx
    2394: 48 8d 7c 24 20               	leaq	32(%rsp), %rdi
    2399: e8 a2 fc ff ff               	callq	-862 <__ecp_nistz256_add_toq>
    239e: 48 8b 44 24 60               	movq	96(%rsp), %rax
    23a3: 48 8d 5c 24 60               	leaq	96(%rsp), %rbx
    23a8: 4c 8b 0c 24                  	movq	(%rsp), %r9
    23ac: 4c 8b 54 24 08               	movq	8(%rsp), %r10
    23b1: 48 8d 34 24                  	leaq	(%rsp), %rsi
    23b5: 4c 8b 5c 24 10               	movq	16(%rsp), %r11
    23ba: 4c 8b 64 24 18               	movq	24(%rsp), %r12
    23bf: 48 8d 3c 24                  	leaq	(%rsp), %rdi
    23c3: e8 18 f7 ff ff               	callq	-2280 <__ecp_nistz256_mul_montq>
    23c8: 48 8d bc 24 80 00 00 00      	leaq	128(%rsp), %rdi
    23d0: e8 6b fd ff ff               	callq	-661 <__ecp_nistz256_mul_by_2q>
    23d5: 48 8b 44 24 20               	movq	32(%rsp), %rax
    23da: 4c 8b 74 24 28               	movq	40(%rsp), %r14
    23df: 48 8d 74 24 20               	leaq	32(%rsp), %rsi
    23e4: 4c 8b 7c 24 30               	movq	48(%rsp), %r15
    23e9: 4c 8b 44 24 38               	movq	56(%rsp), %r8
    23ee: 66 48 0f 7e c7               	movq	%xmm0, %rdi
    23f3: e8 88 f9 ff ff               	callq	-1656 <__ecp_nistz256_sqr_montq>
    23f8: 48 8d 9c 24 80 00 00 00      	leaq	128(%rsp), %rbx
    2400: 4d 89 f0                     	movq	%r14, %r8
    2403: 4d 89 f9                     	movq	%r15, %r9
    2406: 49 89 f6                     	movq	%rsi, %r14
    2409: 49 89 ef                     	movq	%rbp, %r15
    240c: e8 8f fc ff ff               	callq	-881 <__ecp_nistz256_sub_fromq>
    2411: 48 8b 04 24                  	movq	(%rsp), %rax
    2415: 48 8b 6c 24 08               	movq	8(%rsp), %rbp
    241a: 48 8b 4c 24 10               	movq	16(%rsp), %rcx
    241f: 4c 8b 54 24 18               	movq	24(%rsp), %r10
    2424: 48 8d 3c 24                  	leaq	(%rsp), %rdi
    2428: e8 d3 fc ff ff               	callq	-813 <__ecp_nistz256_subq>
    242d: 48 8b 44 24 20               	movq	32(%rsp), %rax
    2432: 48 8d 5c 24 20               	leaq	32(%rsp), %rbx
    2437: 4d 89 e6                     	movq	%r12, %r14
    243a: 31 c9                        	xorl	%ecx, %ecx
    243c: 4c 89 24 24                  	movq	%r12, (%rsp)
    2440: 4d 89 ea                     	movq	%r13, %r10
    2443: 4c 89 6c 24 08               	movq	%r13, 8(%rsp)
    2448: 4d 0f 44 d8                  	cmoveq	%r8, %r11
    244c: 4c 89 44 24 10               	movq	%r8, 16(%rsp)
    2451: 48 8d 34 24                  	leaq	(%rsp), %rsi
    2455: 4d 0f 44 e1                  	cmoveq	%r9, %r12
    2459: 4c 89 4c 24 18               	movq	%r9, 24(%rsp)
    245e: 4d 89 f1                     	movq	%r14, %r9
    2461: 48 8d 3c 24                  	leaq	(%rsp), %rdi
    2465: e8 76 f6 ff ff               	callq	-2442 <__ecp_nistz256_mul_montq>
    246a: 66 48 0f 7e cb               	movq	%xmm1, %rbx
    246f: 66 48 0f 7e cf               	movq	%xmm1, %rdi
    2474: e8 27 fc ff ff               	callq	-985 <__ecp_nistz256_sub_fromq>
    2479: 48 8d b4 24 d8 00 00 00      	leaq	216(%rsp), %rsi
    2481: 4c 8b 7e d0                  	movq	-48(%rsi), %r15
    2485: 4c 8b 76 d8                  	movq	-40(%rsi), %r14
    2489: 4c 8b 6e e0                  	movq	-32(%rsi), %r13
    248d: 4c 8b 66 e8                  	movq	-24(%rsi), %r12
    2491: 48 8b 5e f0                  	movq	-16(%rsi), %rbx
    2495: 48 8b 6e f8                  	movq	-8(%rsi), %rbp
    2499: 48 8d 26                     	leaq	(%rsi), %rsp
    249c: f3 c3                        	rep		retq
    249e: 66 90                        	nop

00000000000024a0 ecp_nistz256_point_add:
    24a0: 55                           	pushq	%rbp
    24a1: 53                           	pushq	%rbx
    24a2: 41 54                        	pushq	%r12
    24a4: 41 55                        	pushq	%r13
    24a6: 41 56                        	pushq	%r14
    24a8: 41 57                        	pushq	%r15
    24aa: 48 81 ec 48 02 00 00         	subq	$584, %rsp
    24b1: f3 0f 6f 06                  	movdqu	(%rsi), %xmm0
    24b5: f3 0f 6f 4e 10               	movdqu	16(%rsi), %xmm1
    24ba: f3 0f 6f 56 20               	movdqu	32(%rsi), %xmm2
    24bf: f3 0f 6f 5e 30               	movdqu	48(%rsi), %xmm3
    24c4: f3 0f 6f 66 40               	movdqu	64(%rsi), %xmm4
    24c9: f3 0f 6f 6e 50               	movdqu	80(%rsi), %xmm5
    24ce: 48 89 f3                     	movq	%rsi, %rbx
    24d1: 48 89 d6                     	movq	%rdx, %rsi
    24d4: 66 0f 7f 84 24 80 01 00 00   	movdqa	%xmm0, 384(%rsp)
    24dd: 66 0f 7f 8c 24 90 01 00 00   	movdqa	%xmm1, 400(%rsp)
    24e6: 66 0f 7f 94 24 a0 01 00 00   	movdqa	%xmm2, 416(%rsp)
    24ef: 66 0f 7f 9c 24 b0 01 00 00   	movdqa	%xmm3, 432(%rsp)
    24f8: 66 0f 7f a4 24 c0 01 00 00   	movdqa	%xmm4, 448(%rsp)
    2501: 66 0f 7f ac 24 d0 01 00 00   	movdqa	%xmm5, 464(%rsp)
    250a: 66 0f eb ec                  	por	%xmm4, %xmm5
    250e: f3 0f 6f 06                  	movdqu	(%rsi), %xmm0
    2512: 66 0f 70 dd b1               	pshufd	$177, %xmm5, %xmm3
    2517: f3 0f 6f 4e 10               	movdqu	16(%rsi), %xmm1
    251c: f3 0f 6f 56 20               	movdqu	32(%rsi), %xmm2
    2521: 66 0f eb eb                  	por	%xmm3, %xmm5
    2525: f3 0f 6f 5e 30               	movdqu	48(%rsi), %xmm3
    252a: 48 8b 46 40                  	movq	64(%rsi), %rax
    252e: 4c 8b 76 48                  	movq	72(%rsi), %r14
    2532: 4c 8b 7e 50                  	movq	80(%rsi), %r15
    2536: 4c 8b 46 58                  	movq	88(%rsi), %r8
    253a: 66 0f 7f 84 24 e0 01 00 00   	movdqa	%xmm0, 480(%rsp)
    2543: 66 0f 70 e5 1e               	pshufd	$30, %xmm5, %xmm4
    2548: 66 0f 7f 8c 24 f0 01 00 00   	movdqa	%xmm1, 496(%rsp)
    2551: f3 0f 6f 46 40               	movdqu	64(%rsi), %xmm0
    2556: f3 0f 6f 4e 50               	movdqu	80(%rsi), %xmm1
    255b: 66 0f 7f 94 24 00 02 00 00   	movdqa	%xmm2, 512(%rsp)
    2564: 66 0f 7f 9c 24 10 02 00 00   	movdqa	%xmm3, 528(%rsp)
    256d: 66 0f eb ec                  	por	%xmm4, %xmm5
    2571: 66 0f ef e4                  	pxor	%xmm4, %xmm4
    2575: 66 0f eb c8                  	por	%xmm0, %xmm1
    2579: 66 48 0f 6e c7               	movq	%rdi, %xmm0
    257e: 48 8d 76 40                  	leaq	64(%rsi), %rsi
    2582: 48 89 84 24 20 02 00 00      	movq	%rax, 544(%rsp)
    258a: 4c 89 b4 24 28 02 00 00      	movq	%r14, 552(%rsp)
    2592: 4c 89 bc 24 30 02 00 00      	movq	%r15, 560(%rsp)
    259a: 4c 89 84 24 38 02 00 00      	movq	%r8, 568(%rsp)
    25a2: 48 8d 7c 24 60               	leaq	96(%rsp), %rdi
    25a7: e8 d4 f7 ff ff               	callq	-2092 <__ecp_nistz256_sqr_montq>
    25ac: 66 0f 76 ec                  	pcmpeqd	%xmm4, %xmm5
    25b0: 66 0f 70 e1 b1               	pshufd	$177, %xmm1, %xmm4
    25b5: 66 0f eb e1                  	por	%xmm1, %xmm4
    25b9: 66 0f 70 ed 00               	pshufd	$0, %xmm5, %xmm5
    25be: 66 0f 70 dc 1e               	pshufd	$30, %xmm4, %xmm3
    25c3: 66 0f eb e3                  	por	%xmm3, %xmm4
    25c7: 66 0f ef db                  	pxor	%xmm3, %xmm3
    25cb: 66 0f 76 e3                  	pcmpeqd	%xmm3, %xmm4
    25cf: 66 0f 70 e4 00               	pshufd	$0, %xmm4, %xmm4
    25d4: 48 8b 43 40                  	movq	64(%rbx), %rax
    25d8: 4c 8b 73 48                  	movq	72(%rbx), %r14
    25dc: 4c 8b 7b 50                  	movq	80(%rbx), %r15
    25e0: 4c 8b 43 58                  	movq	88(%rbx), %r8
    25e4: 66 48 0f 6e cb               	movq	%rbx, %xmm1
    25e9: 48 8d 73 40                  	leaq	64(%rbx), %rsi
    25ed: 48 8d 7c 24 20               	leaq	32(%rsp), %rdi
    25f2: e8 89 f7 ff ff               	callq	-2167 <__ecp_nistz256_sqr_montq>
    25f7: 48 8b 84 24 20 02 00 00      	movq	544(%rsp), %rax
    25ff: 48 8d 9c 24 20 02 00 00      	leaq	544(%rsp), %rbx
    2607: 4c 8b 4c 24 60               	movq	96(%rsp), %r9
    260c: 4c 8b 54 24 68               	movq	104(%rsp), %r10
    2611: 48 8d 74 24 60               	leaq	96(%rsp), %rsi
    2616: 4c 8b 5c 24 70               	movq	112(%rsp), %r11
    261b: 4c 8b 64 24 78               	movq	120(%rsp), %r12
    2620: 48 8d bc 24 e0 00 00 00      	leaq	224(%rsp), %rdi
    2628: e8 b3 f4 ff ff               	callq	-2893 <__ecp_nistz256_mul_montq>
    262d: 48 8b 84 24 c0 01 00 00      	movq	448(%rsp), %rax
    2635: 48 8d 9c 24 c0 01 00 00      	leaq	448(%rsp), %rbx
    263d: 4c 8b 4c 24 20               	movq	32(%rsp), %r9
    2642: 4c 8b 54 24 28               	movq	40(%rsp), %r10
    2647: 48 8d 74 24 20               	leaq	32(%rsp), %rsi
    264c: 4c 8b 5c 24 30               	movq	48(%rsp), %r11
    2651: 4c 8b 64 24 38               	movq	56(%rsp), %r12
    2656: 48 8d bc 24 00 01 00 00      	leaq	256(%rsp), %rdi
    265e: e8 7d f4 ff ff               	callq	-2947 <__ecp_nistz256_mul_montq>
    2663: 48 8b 84 24 a0 01 00 00      	movq	416(%rsp), %rax
    266b: 48 8d 9c 24 a0 01 00 00      	leaq	416(%rsp), %rbx
    2673: 4c 8b 8c 24 e0 00 00 00      	movq	224(%rsp), %r9
    267b: 4c 8b 94 24 e8 00 00 00      	movq	232(%rsp), %r10
    2683: 48 8d b4 24 e0 00 00 00      	leaq	224(%rsp), %rsi
    268b: 4c 8b 9c 24 f0 00 00 00      	movq	240(%rsp), %r11
    2693: 4c 8b a4 24 f8 00 00 00      	movq	248(%rsp), %r12
    269b: 48 8d bc 24 e0 00 00 00      	leaq	224(%rsp), %rdi
    26a3: e8 38 f4 ff ff               	callq	-3016 <__ecp_nistz256_mul_montq>
    26a8: 48 8b 84 24 00 02 00 00      	movq	512(%rsp), %rax
    26b0: 48 8d 9c 24 00 02 00 00      	leaq	512(%rsp), %rbx
    26b8: 4c 8b 8c 24 00 01 00 00      	movq	256(%rsp), %r9
    26c0: 4c 8b 94 24 08 01 00 00      	movq	264(%rsp), %r10
    26c8: 48 8d b4 24 00 01 00 00      	leaq	256(%rsp), %rsi
    26d0: 4c 8b 9c 24 10 01 00 00      	movq	272(%rsp), %r11
    26d8: 4c 8b a4 24 18 01 00 00      	movq	280(%rsp), %r12
    26e0: 48 8d bc 24 00 01 00 00      	leaq	256(%rsp), %rdi
    26e8: e8 f3 f3 ff ff               	callq	-3085 <__ecp_nistz256_mul_montq>
    26ed: 48 8d 9c 24 e0 00 00 00      	leaq	224(%rsp), %rbx
    26f5: 48 8d 7c 24 40               	leaq	64(%rsp), %rdi
    26fa: e8 a1 f9 ff ff               	callq	-1631 <__ecp_nistz256_sub_fromq>
    26ff: 4d 09 ec                     	orq	%r13, %r12
    2702: 66 0f 6f d4                  	movdqa	%xmm4, %xmm2
    2706: 4d 09 c4                     	orq	%r8, %r12
    2709: 4d 09 cc                     	orq	%r9, %r12
    270c: 66 0f eb d5                  	por	%xmm5, %xmm2
    2710: 66 49 0f 6e dc               	movq	%r12, %xmm3
    2715: 48 8b 84 24 80 01 00 00      	movq	384(%rsp), %rax
    271d: 48 8d 9c 24 80 01 00 00      	leaq	384(%rsp), %rbx
    2725: 4c 8b 4c 24 60               	movq	96(%rsp), %r9
    272a: 4c 8b 54 24 68               	movq	104(%rsp), %r10
    272f: 48 8d 74 24 60               	leaq	96(%rsp), %rsi
    2734: 4c 8b 5c 24 70               	movq	112(%rsp), %r11
    2739: 4c 8b 64 24 78               	movq	120(%rsp), %r12
    273e: 48 8d bc 24 a0 00 00 00      	leaq	160(%rsp), %rdi
    2746: e8 95 f3 ff ff               	callq	-3179 <__ecp_nistz256_mul_montq>
    274b: 48 8b 84 24 e0 01 00 00      	movq	480(%rsp), %rax
    2753: 48 8d 9c 24 e0 01 00 00      	leaq	480(%rsp), %rbx
    275b: 4c 8b 4c 24 20               	movq	32(%rsp), %r9
    2760: 4c 8b 54 24 28               	movq	40(%rsp), %r10
    2765: 48 8d 74 24 20               	leaq	32(%rsp), %rsi
    276a: 4c 8b 5c 24 30               	movq	48(%rsp), %r11
    276f: 4c 8b 64 24 38               	movq	56(%rsp), %r12
    2774: 48 8d bc 24 c0 00 00 00      	leaq	192(%rsp), %rdi
    277c: e8 5f f3 ff ff               	callq	-3233 <__ecp_nistz256_mul_montq>
    2781: 48 8d 9c 24 a0 00 00 00      	leaq	160(%rsp), %rbx
    2789: 48 8d 3c 24                  	leaq	(%rsp), %rdi
    278d: e8 0e f9 ff ff               	callq	-1778 <__ecp_nistz256_sub_fromq>
    2792: 4d 09 ec                     	orq	%r13, %r12
    2795: 4d 09 c4                     	orq	%r8, %r12
    2798: 4d 09 cc                     	orq	%r9, %r12
    279b: 66 49 0f 7e d0               	movq	%xmm2, %r8
    27a0: 66 49 0f 7e d9               	movq	%xmm3, %r9
    27a5: 4d 09 c4                     	orq	%r8, %r12
    27a8: 4d 09 cc                     	orq	%r9, %r12
    27ab: 3e 75 32                     	jne	50 <ecp_nistz256_point_add+0x340>
    27ae: 66 48 0f 7e ce               	movq	%xmm1, %rsi
    27b3: 66 48 0f 7e c7               	movq	%xmm0, %rdi
    27b8: 48 81 c4 a0 01 00 00         	addq	$416, %rsp
    27bf: e9 ed f9 ff ff               	jmp	-1555 <ecp_nistz256_point_double+0x11>
    27c4: 66 66 2e 0f 1f 84 00 00 00 00 00     	nopw	%cs:(%rax,%rax)
    27cf: 66 66 2e 0f 1f 84 00 00 00 00 00     	nopw	%cs:(%rax,%rax)
    27da: 66 0f 1f 44 00 00            	nopw	(%rax,%rax)
    27e0: 48 8b 44 24 40               	movq	64(%rsp), %rax
    27e5: 4c 8b 74 24 48               	movq	72(%rsp), %r14
    27ea: 48 8d 74 24 40               	leaq	64(%rsp), %rsi
    27ef: 4c 8b 7c 24 50               	movq	80(%rsp), %r15
    27f4: 4c 8b 44 24 58               	movq	88(%rsp), %r8
    27f9: 48 8d 7c 24 60               	leaq	96(%rsp), %rdi
    27fe: e8 7d f5 ff ff               	callq	-2691 <__ecp_nistz256_sqr_montq>
    2803: 48 8b 84 24 c0 01 00 00      	movq	448(%rsp), %rax
    280b: 48 8d 9c 24 c0 01 00 00      	leaq	448(%rsp), %rbx
    2813: 4c 8b 0c 24                  	movq	(%rsp), %r9
    2817: 4c 8b 54 24 08               	movq	8(%rsp), %r10
    281c: 48 8d 34 24                  	leaq	(%rsp), %rsi
    2820: 4c 8b 5c 24 10               	movq	16(%rsp), %r11
    2825: 4c 8b 64 24 18               	movq	24(%rsp), %r12
    282a: 48 8d bc 24 60 01 00 00      	leaq	352(%rsp), %rdi
    2832: e8 a9 f2 ff ff               	callq	-3415 <__ecp_nistz256_mul_montq>
    2837: 48 8b 04 24                  	movq	(%rsp), %rax
    283b: 4c 8b 74 24 08               	movq	8(%rsp), %r14
    2840: 48 8d 34 24                  	leaq	(%rsp), %rsi
    2844: 4c 8b 7c 24 10               	movq	16(%rsp), %r15
    2849: 4c 8b 44 24 18               	movq	24(%rsp), %r8
    284e: 48 8d 7c 24 20               	leaq	32(%rsp), %rdi
    2853: e8 28 f5 ff ff               	callq	-2776 <__ecp_nistz256_sqr_montq>
    2858: 48 8b 84 24 20 02 00 00      	movq	544(%rsp), %rax
    2860: 48 8d 9c 24 20 02 00 00      	leaq	544(%rsp), %rbx
    2868: 4c 8b 8c 24 60 01 00 00      	movq	352(%rsp), %r9
    2870: 4c 8b 94 24 68 01 00 00      	movq	360(%rsp), %r10
    2878: 48 8d b4 24 60 01 00 00      	leaq	352(%rsp), %rsi
    2880: 4c 8b 9c 24 70 01 00 00      	movq	368(%rsp), %r11
    2888: 4c 8b a4 24 78 01 00 00      	movq	376(%rsp), %r12
    2890: 48 8d bc 24 60 01 00 00      	leaq	352(%rsp), %rdi
    2898: e8 43 f2 ff ff               	callq	-3517 <__ecp_nistz256_mul_montq>
    289d: 48 8b 04 24                  	movq	(%rsp), %rax
    28a1: 48 8d 1c 24                  	leaq	(%rsp), %rbx
    28a5: 4c 8b 4c 24 20               	movq	32(%rsp), %r9
    28aa: 4c 8b 54 24 28               	movq	40(%rsp), %r10
    28af: 48 8d 74 24 20               	leaq	32(%rsp), %rsi
    28b4: 4c 8b 5c 24 30               	movq	48(%rsp), %r11
    28b9: 4c 8b 64 24 38               	movq	56(%rsp), %r12
    28be: 48 8d bc 24 80 00 00 00      	leaq	128(%rsp), %rdi
    28c6: e8 15 f2 ff ff               	callq	-3563 <__ecp_nistz256_mul_montq>
    28cb: 48 8b 84 24 a0 00 00 00      	movq	160(%rsp), %rax
    28d3: 48 8d 9c 24 a0 00 00 00      	leaq	160(%rsp), %rbx
    28db: 4c 8b 4c 24 20               	movq	32(%rsp), %r9
    28e0: 4c 8b 54 24 28               	movq	40(%rsp), %r10
    28e5: 48 8d 74 24 20               	leaq	32(%rsp), %rsi
    28ea: 4c 8b 5c 24 30               	movq	48(%rsp), %r11
    28ef: 4c 8b 64 24 38               	movq	56(%rsp), %r12
    28f4: 48 8d bc 24 c0 00 00 00      	leaq	192(%rsp), %rdi
    28fc: e8 df f1 ff ff               	callq	-3617 <__ecp_nistz256_mul_montq>
    2901: 4d 31 db                     	xorq	%r11, %r11
    2904: 4d 01 e4                     	addq	%r12, %r12
    2907: 48 8d 74 24 60               	leaq	96(%rsp), %rsi
    290c: 4d 11 ed                     	adcq	%r13, %r13
    290f: 4c 89 e0                     	movq	%r12, %rax
    2912: 4d 11 c0                     	adcq	%r8, %r8
    2915: 4d 11 c9                     	adcq	%r9, %r9
    2918: 4c 89 ed                     	movq	%r13, %rbp
    291b: 49 83 d3 00                  	adcq	$0, %r11
    291f: 49 83 ec ff                  	subq	$-1, %r12
    2923: 4c 89 c1                     	movq	%r8, %rcx
    2926: 4d 19 f5                     	sbbq	%r14, %r13
    2929: 49 83 d8 00                  	sbbq	$0, %r8
    292d: 4d 89 ca                     	movq	%r9, %r10
    2930: 4d 19 f9                     	sbbq	%r15, %r9
    2933: 49 83 db 00                  	sbbq	$0, %r11
    2937: 4c 0f 42 e0                  	cmovbq	%rax, %r12
    293b: 48 8b 06                     	movq	(%rsi), %rax
    293e: 4c 0f 42 ed                  	cmovbq	%rbp, %r13
    2942: 48 8b 6e 08                  	movq	8(%rsi), %rbp
    2946: 4c 0f 42 c1                  	cmovbq	%rcx, %r8
    294a: 48 8b 4e 10                  	movq	16(%rsi), %rcx
    294e: 4d 0f 42 ca                  	cmovbq	%r10, %r9
    2952: 4c 8b 56 18                  	movq	24(%rsi), %r10
    2956: e8 a5 f7 ff ff               	callq	-2139 <__ecp_nistz256_subq>
    295b: 48 8d 9c 24 80 00 00 00      	leaq	128(%rsp), %rbx
    2963: 48 8d bc 24 20 01 00 00      	leaq	288(%rsp), %rdi
    296b: e8 30 f7 ff ff               	callq	-2256 <__ecp_nistz256_sub_fromq>
    2970: 48 8b 84 24 c0 00 00 00      	movq	192(%rsp), %rax
    2978: 48 8b ac 24 c8 00 00 00      	movq	200(%rsp), %rbp
    2980: 48 8b 8c 24 d0 00 00 00      	movq	208(%rsp), %rcx
    2988: 4c 8b 94 24 d8 00 00 00      	movq	216(%rsp), %r10
    2990: 48 8d bc 24 40 01 00 00      	leaq	320(%rsp), %rdi
    2998: e8 63 f7 ff ff               	callq	-2205 <__ecp_nistz256_subq>
    299d: 4c 89 27                     	movq	%r12, (%rdi)
    29a0: 4c 89 6f 08                  	movq	%r13, 8(%rdi)
    29a4: 4c 89 47 10                  	movq	%r8, 16(%rdi)
    29a8: 4c 89 4f 18                  	movq	%r9, 24(%rdi)
    29ac: 48 8b 84 24 80 00 00 00      	movq	128(%rsp), %rax
    29b4: 48 8d 9c 24 80 00 00 00      	leaq	128(%rsp), %rbx
    29bc: 4c 8b 8c 24 e0 00 00 00      	movq	224(%rsp), %r9
    29c4: 4c 8b 94 24 e8 00 00 00      	movq	232(%rsp), %r10
    29cc: 48 8d b4 24 e0 00 00 00      	leaq	224(%rsp), %rsi
    29d4: 4c 8b 9c 24 f0 00 00 00      	movq	240(%rsp), %r11
    29dc: 4c 8b a4 24 f8 00 00 00      	movq	248(%rsp), %r12
    29e4: 48 8d bc 24 00 01 00 00      	leaq	256(%rsp), %rdi
    29ec: e8 ef f0 ff ff               	callq	-3857 <__ecp_nistz256_mul_montq>
    29f1: 48 8b 84 24 40 01 00 00      	movq	320(%rsp), %rax
    29f9: 48 8d 9c 24 40 01 00 00      	leaq	320(%rsp), %rbx
    2a01: 4c 8b 4c 24 40               	movq	64(%rsp), %r9
    2a06: 4c 8b 54 24 48               	movq	72(%rsp), %r10
    2a0b: 48 8d 74 24 40               	leaq	64(%rsp), %rsi
    2a10: 4c 8b 5c 24 50               	movq	80(%rsp), %r11
    2a15: 4c 8b 64 24 58               	movq	88(%rsp), %r12
    2a1a: 48 8d bc 24 40 01 00 00      	leaq	320(%rsp), %rdi
    2a22: e8 b9 f0 ff ff               	callq	-3911 <__ecp_nistz256_mul_montq>
    2a27: 48 8d 9c 24 00 01 00 00      	leaq	256(%rsp), %rbx
    2a2f: 48 8d bc 24 40 01 00 00      	leaq	320(%rsp), %rdi
    2a37: e8 64 f6 ff ff               	callq	-2460 <__ecp_nistz256_sub_fromq>
    2a3c: 66 48 0f 7e c7               	movq	%xmm0, %rdi
    2a41: 66 0f 6f c5                  	movdqa	%xmm5, %xmm0
    2a45: 66 0f 6f cd                  	movdqa	%xmm5, %xmm1
    2a49: 66 0f df 84 24 60 01 00 00   	pandn	352(%rsp), %xmm0
    2a52: 66 0f 6f d5                  	movdqa	%xmm5, %xmm2
    2a56: 66 0f df 8c 24 70 01 00 00   	pandn	368(%rsp), %xmm1
    2a5f: 66 0f 6f dd                  	movdqa	%xmm5, %xmm3
    2a63: 66 0f db 94 24 20 02 00 00   	pand	544(%rsp), %xmm2
    2a6c: 66 0f db 9c 24 30 02 00 00   	pand	560(%rsp), %xmm3
    2a75: 66 0f eb d0                  	por	%xmm0, %xmm2
    2a79: 66 0f eb d9                  	por	%xmm1, %xmm3
    2a7d: 66 0f 6f c4                  	movdqa	%xmm4, %xmm0
    2a81: 66 0f 6f cc                  	movdqa	%xmm4, %xmm1
    2a85: 66 0f df c2                  	pandn	%xmm2, %xmm0
    2a89: 66 0f 6f d4                  	movdqa	%xmm4, %xmm2
    2a8d: 66 0f df cb                  	pandn	%xmm3, %xmm1
    2a91: 66 0f 6f dc                  	movdqa	%xmm4, %xmm3
    2a95: 66 0f db 94 24 c0 01 00 00   	pand	448(%rsp), %xmm2
    2a9e: 66 0f db 9c 24 d0 01 00 00   	pand	464(%rsp), %xmm3
    2aa7: 66 0f eb d0                  	por	%xmm0, %xmm2
    2aab: 66 0f eb d9                  	por	%xmm1, %xmm3
    2aaf: f3 0f 7f 57 40               	movdqu	%xmm2, 64(%rdi)
    2ab4: f3 0f 7f 5f 50               	movdqu	%xmm3, 80(%rdi)
    2ab9: 66 0f 6f c5                  	movdqa	%xmm5, %xmm0
    2abd: 66 0f 6f cd                  	movdqa	%xmm5, %xmm1
    2ac1: 66 0f df 84 24 20 01 00 00   	pandn	288(%rsp), %xmm0
    2aca: 66 0f 6f d5                  	movdqa	%xmm5, %xmm2
    2ace: 66 0f df 8c 24 30 01 00 00   	pandn	304(%rsp), %xmm1
    2ad7: 66 0f 6f dd                  	movdqa	%xmm5, %xmm3
    2adb: 66 0f db 94 24 e0 01 00 00   	pand	480(%rsp), %xmm2
    2ae4: 66 0f db 9c 24 f0 01 00 00   	pand	496(%rsp), %xmm3
    2aed: 66 0f eb d0                  	por	%xmm0, %xmm2
    2af1: 66 0f eb d9                  	por	%xmm1, %xmm3
    2af5: 66 0f 6f c4                  	movdqa	%xmm4, %xmm0
    2af9: 66 0f 6f cc                  	movdqa	%xmm4, %xmm1
    2afd: 66 0f df c2                  	pandn	%xmm2, %xmm0
    2b01: 66 0f 6f d4                  	movdqa	%xmm4, %xmm2
    2b05: 66 0f df cb                  	pandn	%xmm3, %xmm1
    2b09: 66 0f 6f dc                  	movdqa	%xmm4, %xmm3
    2b0d: 66 0f db 94 24 80 01 00 00   	pand	384(%rsp), %xmm2
    2b16: 66 0f db 9c 24 90 01 00 00   	pand	400(%rsp), %xmm3
    2b1f: 66 0f eb d0                  	por	%xmm0, %xmm2
    2b23: 66 0f eb d9                  	por	%xmm1, %xmm3
    2b27: f3 0f 7f 17                  	movdqu	%xmm2, (%rdi)
    2b2b: f3 0f 7f 5f 10               	movdqu	%xmm3, 16(%rdi)
    2b30: 66 0f 6f c5                  	movdqa	%xmm5, %xmm0
    2b34: 66 0f 6f cd                  	movdqa	%xmm5, %xmm1
    2b38: 66 0f df 84 24 40 01 00 00   	pandn	320(%rsp), %xmm0
    2b41: 66 0f 6f d5                  	movdqa	%xmm5, %xmm2
    2b45: 66 0f df 8c 24 50 01 00 00   	pandn	336(%rsp), %xmm1
    2b4e: 66 0f 6f dd                  	movdqa	%xmm5, %xmm3
    2b52: 66 0f db 94 24 00 02 00 00   	pand	512(%rsp), %xmm2
    2b5b: 66 0f db 9c 24 10 02 00 00   	pand	528(%rsp), %xmm3
    2b64: 66 0f eb d0                  	por	%xmm0, %xmm2
    2b68: 66 0f eb d9                  	por	%xmm1, %xmm3
    2b6c: 66 0f 6f c4                  	movdqa	%xmm4, %xmm0
    2b70: 66 0f 6f cc                  	movdqa	%xmm4, %xmm1
    2b74: 66 0f df c2                  	pandn	%xmm2, %xmm0
    2b78: 66 0f 6f d4                  	movdqa	%xmm4, %xmm2
    2b7c: 66 0f df cb                  	pandn	%xmm3, %xmm1
    2b80: 66 0f 6f dc                  	movdqa	%xmm4, %xmm3
    2b84: 66 0f db 94 24 a0 01 00 00   	pand	416(%rsp), %xmm2
    2b8d: 66 0f db 9c 24 b0 01 00 00   	pand	432(%rsp), %xmm3
    2b96: 66 0f eb d0                  	por	%xmm0, %xmm2
    2b9a: 66 0f eb d9                  	por	%xmm1, %xmm3
    2b9e: f3 0f 7f 57 20               	movdqu	%xmm2, 32(%rdi)
    2ba3: f3 0f 7f 5f 30               	movdqu	%xmm3, 48(%rdi)
    2ba8: 48 8d b4 24 78 02 00 00      	leaq	632(%rsp), %rsi
    2bb0: 4c 8b 7e d0                  	movq	-48(%rsi), %r15
    2bb4: 4c 8b 76 d8                  	movq	-40(%rsi), %r14
    2bb8: 4c 8b 6e e0                  	movq	-32(%rsi), %r13
    2bbc: 4c 8b 66 e8                  	movq	-24(%rsi), %r12
    2bc0: 48 8b 5e f0                  	movq	-16(%rsi), %rbx
    2bc4: 48 8b 6e f8                  	movq	-8(%rsi), %rbp
    2bc8: 48 8d 26                     	leaq	(%rsi), %rsp
    2bcb: f3 c3                        	rep		retq
    2bcd: 0f 1f 00                     	nopl	(%rax)

0000000000002bd0 ecp_nistz256_mod_inverse:
    2bd0: 41 57                        	pushq	%r15
    2bd2: 49 89 f7                     	movq	%rsi, %r15
    2bd5: 41 56                        	pushq	%r14
    2bd7: 41 55                        	pushq	%r13
    2bd9: 41 54                        	pushq	%r12
    2bdb: 55                           	pushq	%rbp
    2bdc: bd 07 00 00 00               	movl	$7, %ebp
    2be1: 53                           	pushq	%rbx
    2be2: 48 81 ec e8 00 00 00         	subq	$232, %rsp
    2be9: 4c 8d 74 24 20               	leaq	32(%rsp), %r14
    2bee: 48 8d 9c 24 c0 00 00 00      	leaq	192(%rsp), %rbx
    2bf6: 48 89 7c 24 10               	movq	%rdi, 16(%rsp)
    2bfb: 48 89 df                     	movq	%rbx, %rdi
    2bfe: 48 89 34 24                  	movq	%rsi, (%rsp)
    2c02: 4c 8d 64 24 40               	leaq	64(%rsp), %r12
    2c07: 4c 8d 6c 24 60               	leaq	96(%rsp), %r13
    2c0c: e8 0f f1 ff ff               	callq	-3825 <ecp_nistz256_sqr_mont>
    2c11: 4c 89 fa                     	movq	%r15, %rdx
    2c14: 48 89 de                     	movq	%rbx, %rsi
    2c17: 4c 89 f7                     	movq	%r14, %rdi
    2c1a: 4c 89 74 24 18               	movq	%r14, 24(%rsp)
    2c1f: e8 5c ee ff ff               	callq	-4516 <ecp_nistz256_mul_mont>
    2c24: 4c 89 f6                     	movq	%r14, %rsi
    2c27: 48 89 df                     	movq	%rbx, %rdi
    2c2a: e8 f1 f0 ff ff               	callq	-3855 <ecp_nistz256_sqr_mont>
    2c2f: 48 89 de                     	movq	%rbx, %rsi
    2c32: 48 89 df                     	movq	%rbx, %rdi
    2c35: e8 e6 f0 ff ff               	callq	-3866 <ecp_nistz256_sqr_mont>
    2c3a: 4c 89 f2                     	movq	%r14, %rdx
    2c3d: 48 89 de                     	movq	%rbx, %rsi
    2c40: 4c 89 e7                     	movq	%r12, %rdi
    2c43: e8 38 ee ff ff               	callq	-4552 <ecp_nistz256_mul_mont>
    2c48: 4c 89 e6                     	movq	%r12, %rsi
    2c4b: 48 89 df                     	movq	%rbx, %rdi
    2c4e: e8 cd f0 ff ff               	callq	-3891 <ecp_nistz256_sqr_mont>
    2c53: 48 89 de                     	movq	%rbx, %rsi
    2c56: 48 89 df                     	movq	%rbx, %rdi
    2c59: e8 c2 f0 ff ff               	callq	-3902 <ecp_nistz256_sqr_mont>
    2c5e: 48 89 de                     	movq	%rbx, %rsi
    2c61: 48 89 df                     	movq	%rbx, %rdi
    2c64: e8 b7 f0 ff ff               	callq	-3913 <ecp_nistz256_sqr_mont>
    2c69: 48 89 de                     	movq	%rbx, %rsi
    2c6c: 48 89 df                     	movq	%rbx, %rdi
    2c6f: e8 ac f0 ff ff               	callq	-3924 <ecp_nistz256_sqr_mont>
    2c74: 4c 89 e2                     	movq	%r12, %rdx
    2c77: 48 89 de                     	movq	%rbx, %rsi
    2c7a: 4c 89 ef                     	movq	%r13, %rdi
    2c7d: e8 fe ed ff ff               	callq	-4610 <ecp_nistz256_mul_mont>
    2c82: 4c 89 ee                     	movq	%r13, %rsi
    2c85: 48 89 df                     	movq	%rbx, %rdi
    2c88: e8 93 f0 ff ff               	callq	-3949 <ecp_nistz256_sqr_mont>
    2c8d: 0f 1f 00                     	nopl	(%rax)
    2c90: 48 89 de                     	movq	%rbx, %rsi
    2c93: 48 89 df                     	movq	%rbx, %rdi
    2c96: e8 85 f0 ff ff               	callq	-3963 <ecp_nistz256_sqr_mont>
    2c9b: 83 ed 01                     	subl	$1, %ebp
    2c9e: 75 f0                        	jne	-16 <ecp_nistz256_mod_inverse+0xc0>
    2ca0: 4c 8d b4 24 80 00 00 00      	leaq	128(%rsp), %r14
    2ca8: 4c 89 ea                     	movq	%r13, %rdx
    2cab: 48 89 de                     	movq	%rbx, %rsi
    2cae: bd 0f 00 00 00               	movl	$15, %ebp
    2cb3: 4c 89 f7                     	movq	%r14, %rdi
    2cb6: e8 c5 ed ff ff               	callq	-4667 <ecp_nistz256_mul_mont>
    2cbb: 4c 89 f6                     	movq	%r14, %rsi
    2cbe: 48 89 df                     	movq	%rbx, %rdi
    2cc1: e8 5a f0 ff ff               	callq	-4006 <ecp_nistz256_sqr_mont>
    2cc6: 66 2e 0f 1f 84 00 00 00 00 00	nopw	%cs:(%rax,%rax)
    2cd0: 48 89 de                     	movq	%rbx, %rsi
    2cd3: 48 89 df                     	movq	%rbx, %rdi
    2cd6: e8 45 f0 ff ff               	callq	-4027 <ecp_nistz256_sqr_mont>
    2cdb: 83 ed 01                     	subl	$1, %ebp
    2cde: 75 f0                        	jne	-16 <ecp_nistz256_mod_inverse+0x100>
    2ce0: 4c 8d bc 24 a0 00 00 00      	leaq	160(%rsp), %r15
    2ce8: 4c 89 f2                     	movq	%r14, %rdx
    2ceb: 48 89 de                     	movq	%rbx, %rsi
    2cee: bd 1f 00 00 00               	movl	$31, %ebp
    2cf3: 4c 89 ff                     	movq	%r15, %rdi
    2cf6: e8 85 ed ff ff               	callq	-4731 <ecp_nistz256_mul_mont>
    2cfb: 4c 89 fe                     	movq	%r15, %rsi
    2cfe: 48 89 df                     	movq	%rbx, %rdi
    2d01: e8 1a f0 ff ff               	callq	-4070 <ecp_nistz256_sqr_mont>
    2d06: 66 2e 0f 1f 84 00 00 00 00 00	nopw	%cs:(%rax,%rax)
    2d10: 48 89 de                     	movq	%rbx, %rsi
    2d13: 48 89 df                     	movq	%rbx, %rdi
    2d16: e8 05 f0 ff ff               	callq	-4091 <ecp_nistz256_sqr_mont>
    2d1b: 83 ed 01                     	subl	$1, %ebp
    2d1e: 75 f0                        	jne	-16 <ecp_nistz256_mod_inverse+0x140>
    2d20: 48 8b 14 24                  	movq	(%rsp), %rdx
    2d24: 48 89 de                     	movq	%rbx, %rsi
    2d27: 48 89 df                     	movq	%rbx, %rdi
    2d2a: bd 80 00 00 00               	movl	$128, %ebp
    2d2f: e8 4c ed ff ff               	callq	-4788 <ecp_nistz256_mul_mont>
    2d34: 0f 1f 40 00                  	nopl	(%rax)
    2d38: 48 89 de                     	movq	%rbx, %rsi
    2d3b: 48 89 df                     	movq	%rbx, %rdi
    2d3e: e8 dd ef ff ff               	callq	-4131 <ecp_nistz256_sqr_mont>
    2d43: 83 ed 01                     	subl	$1, %ebp
    2d46: 75 f0                        	jne	-16 <ecp_nistz256_mod_inverse+0x168>
    2d48: 4c 89 fa                     	movq	%r15, %rdx
    2d4b: 48 89 de                     	movq	%rbx, %rsi
    2d4e: 48 89 df                     	movq	%rbx, %rdi
    2d51: bd 20 00 00 00               	movl	$32, %ebp
    2d56: e8 25 ed ff ff               	callq	-4827 <ecp_nistz256_mul_mont>
    2d5b: 0f 1f 44 00 00               	nopl	(%rax,%rax)
    2d60: 48 89 de                     	movq	%rbx, %rsi
    2d63: 48 89 df                     	movq	%rbx, %rdi
    2d66: e8 b5 ef ff ff               	callq	-4171 <ecp_nistz256_sqr_mont>
    2d6b: 83 ed 01                     	subl	$1, %ebp
    2d6e: 75 f0                        	jne	-16 <ecp_nistz256_mod_inverse+0x190>
    2d70: 4c 89 fa                     	movq	%r15, %rdx
    2d73: 48 89 de                     	movq	%rbx, %rsi
    2d76: 48 89 df                     	movq	%rbx, %rdi
    2d79: bd 10 00 00 00               	movl	$16, %ebp
    2d7e: e8 fd ec ff ff               	callq	-4867 <ecp_nistz256_mul_mont>
    2d83: 0f 1f 44 00 00               	nopl	(%rax,%rax)
    2d88: 48 89 de                     	movq	%rbx, %rsi
    2d8b: 48 89 df                     	movq	%rbx, %rdi
    2d8e: e8 8d ef ff ff               	callq	-4211 <ecp_nistz256_sqr_mont>
    2d93: 83 ed 01                     	subl	$1, %ebp
    2d96: 75 f0                        	jne	-16 <ecp_nistz256_mod_inverse+0x1b8>
    2d98: 4c 89 f2                     	movq	%r14, %rdx
    2d9b: 48 89 de                     	movq	%rbx, %rsi
    2d9e: 48 89 df                     	movq	%rbx, %rdi
    2da1: bd 08 00 00 00               	movl	$8, %ebp
    2da6: e8 d5 ec ff ff               	callq	-4907 <ecp_nistz256_mul_mont>
    2dab: 0f 1f 44 00 00               	nopl	(%rax,%rax)
    2db0: 48 89 de                     	movq	%rbx, %rsi
    2db3: 48 89 df                     	movq	%rbx, %rdi
    2db6: e8 65 ef ff ff               	callq	-4251 <ecp_nistz256_sqr_mont>
    2dbb: 83 ed 01                     	subl	$1, %ebp
    2dbe: 75 f0                        	jne	-16 <ecp_nistz256_mod_inverse+0x1e0>
    2dc0: 4c 89 ea                     	movq	%r13, %rdx
    2dc3: 48 89 de                     	movq	%rbx, %rsi
    2dc6: 48 89 df                     	movq	%rbx, %rdi
    2dc9: e8 b2 ec ff ff               	callq	-4942 <ecp_nistz256_mul_mont>
    2dce: 48 89 de                     	movq	%rbx, %rsi
    2dd1: 48 89 df                     	movq	%rbx, %rdi
    2dd4: e8 47 ef ff ff               	callq	-4281 <ecp_nistz256_sqr_mont>
    2dd9: 48 89 de                     	movq	%rbx, %rsi
    2ddc: 48 89 df                     	movq	%rbx, %rdi
    2ddf: e8 3c ef ff ff               	callq	-4292 <ecp_nistz256_sqr_mont>
    2de4: 48 89 de                     	movq	%rbx, %rsi
    2de7: 48 89 df                     	movq	%rbx, %rdi
    2dea: e8 31 ef ff ff               	callq	-4303 <ecp_nistz256_sqr_mont>
    2def: 48 89 de                     	movq	%rbx, %rsi
    2df2: 48 89 df                     	movq	%rbx, %rdi
    2df5: e8 26 ef ff ff               	callq	-4314 <ecp_nistz256_sqr_mont>
    2dfa: 4c 89 e2                     	movq	%r12, %rdx
    2dfd: 48 89 de                     	movq	%rbx, %rsi
    2e00: 48 89 df                     	movq	%rbx, %rdi
    2e03: e8 78 ec ff ff               	callq	-5000 <ecp_nistz256_mul_mont>
    2e08: 48 89 de                     	movq	%rbx, %rsi
    2e0b: 48 89 df                     	movq	%rbx, %rdi
    2e0e: e8 0d ef ff ff               	callq	-4339 <ecp_nistz256_sqr_mont>
    2e13: 48 89 de                     	movq	%rbx, %rsi
    2e16: 48 89 df                     	movq	%rbx, %rdi
    2e19: e8 02 ef ff ff               	callq	-4350 <ecp_nistz256_sqr_mont>
    2e1e: 48 8b 54 24 18               	movq	24(%rsp), %rdx
    2e23: 48 89 de                     	movq	%rbx, %rsi
    2e26: 48 89 df                     	movq	%rbx, %rdi
    2e29: e8 52 ec ff ff               	callq	-5038 <ecp_nistz256_mul_mont>
    2e2e: 48 89 de                     	movq	%rbx, %rsi
    2e31: 48 89 df                     	movq	%rbx, %rdi
    2e34: e8 e7 ee ff ff               	callq	-4377 <ecp_nistz256_sqr_mont>
    2e39: 48 89 de                     	movq	%rbx, %rsi
    2e3c: 48 89 df                     	movq	%rbx, %rdi
    2e3f: e8 dc ee ff ff               	callq	-4388 <ecp_nistz256_sqr_mont>
    2e44: 48 8b 14 24                  	movq	(%rsp), %rdx
    2e48: 48 89 de                     	movq	%rbx, %rsi
    2e4b: 48 89 df                     	movq	%rbx, %rdi
    2e4e: e8 2d ec ff ff               	callq	-5075 <ecp_nistz256_mul_mont>
    2e53: 66 0f 6f 4b 10               	movdqa	16(%rbx), %xmm1
    2e58: 48 8b 44 24 10               	movq	16(%rsp), %rax
    2e5d: 66 0f 6f 03                  	movdqa	(%rbx), %xmm0
    2e61: 0f 29 0c 24                  	movaps	%xmm1, (%rsp)
    2e65: 0f 11 00                     	movups	%xmm0, (%rax)
    2e68: 0f 11 48 10                  	movups	%xmm1, 16(%rax)
    2e6c: 48 81 c4 e8 00 00 00         	addq	$232, %rsp
    2e73: 5b                           	popq	%rbx
    2e74: 5d                           	popq	%rbp
    2e75: 41 5c                        	popq	%r12
    2e77: 41 5d                        	popq	%r13
    2e79: 41 5e                        	popq	%r14
    2e7b: 41 5f                        	popq	%r15
    2e7d: c3                           	retq
    2e7e: 66 90                        	nop

0000000000002e80 bn_add:
    2e80: 31 c9                        	xorl	%ecx, %ecx
    2e82: 45 31 c0                     	xorl	%r8d, %r8d
    2e85: 0f 1f 00                     	nopl	(%rax)
    2e88: 0f b6 04 0a                  	movzbl	(%rdx,%rcx), %eax
    2e8c: 02 04 0e                     	addb	(%rsi,%rcx), %al
    2e8f: 41 0f 92 c1                  	setb	%r9b
    2e93: 44 00 c0                     	addb	%r8b, %al
    2e96: 88 04 0f                     	movb	%al, (%rdi,%rcx)
    2e99: 0f 92 c0                     	setb	%al
    2e9c: 48 83 c1 01                  	addq	$1, %rcx
    2ea0: 41 09 c1                     	orl	%eax, %r9d
    2ea3: 45 89 c8                     	movl	%r9d, %r8d
    2ea6: 48 83 f9 21                  	cmpq	$33, %rcx
    2eaa: 75 dc                        	jne	-36 <bn_add+0x8>
    2eac: c3                           	retq
    2ead: 0f 1f 00                     	nopl	(%rax)

0000000000002eb0 bn_conditional_selection:
    2eb0: 4c 8d 4a 10                  	leaq	16(%rdx), %r9
    2eb4: 8d 47 ff                     	leal	-1(%rdi), %eax
    2eb7: f7 df                        	negl	%edi
    2eb9: 4c 8d 46 10                  	leaq	16(%rsi), %r8
    2ebd: 4c 39 ce                     	cmpq	%r9, %rsi
    2ec0: 41 0f 93 c2                  	setae	%r10b
    2ec4: 4c 39 c2                     	cmpq	%r8, %rdx
    2ec7: 41 0f 93 c1                  	setae	%r9b
    2ecb: 45 08 ca                     	orb	%r9b, %r10b
    2ece: 0f 84 84 00 00 00            	je	132 <bn_conditional_selection+0xa8>
    2ed4: 4c 8d 49 10                  	leaq	16(%rcx), %r9
    2ed8: 4c 39 ce                     	cmpq	%r9, %rsi
    2edb: 41 0f 93 c1                  	setae	%r9b
    2edf: 4c 39 c1                     	cmpq	%r8, %rcx
    2ee2: 41 0f 93 c0                  	setae	%r8b
    2ee6: 45 08 c1                     	orb	%r8b, %r9b
    2ee9: 74 6d                        	je	109 <bn_conditional_selection+0xa8>
    2eeb: f3 0f 6f 12                  	movdqu	(%rdx), %xmm2
    2eef: f3 0f 6f 19                  	movdqu	(%rcx), %xmm3
    2ef3: 89 7c 24 f4                  	movl	%edi, -12(%rsp)
    2ef7: 66 0f 6e 4c 24 f4            	movd	-12(%rsp), %xmm1
    2efd: 89 44 24 f4                  	movl	%eax, -12(%rsp)
    2f01: 66 0f 60 c9                  	punpcklbw	%xmm1, %xmm1
    2f05: 66 0f 61 c9                  	punpcklwd	%xmm1, %xmm1
    2f09: 66 0f 6e 44 24 f4            	movd	-12(%rsp), %xmm0
    2f0f: 66 0f 70 c9 00               	pshufd	$0, %xmm1, %xmm1
    2f14: 66 0f 60 c0                  	punpcklbw	%xmm0, %xmm0
    2f18: 66 0f db d1                  	pand	%xmm1, %xmm2
    2f1c: 66 0f 61 c0                  	punpcklwd	%xmm0, %xmm0
    2f20: 66 0f 70 c0 00               	pshufd	$0, %xmm0, %xmm0
    2f25: 66 0f db d8                  	pand	%xmm0, %xmm3
    2f29: 66 0f eb d3                  	por	%xmm3, %xmm2
    2f2d: 0f 11 16                     	movups	%xmm2, (%rsi)
    2f30: f3 0f 6f 62 10               	movdqu	16(%rdx), %xmm4
    2f35: f3 0f 6f 69 10               	movdqu	16(%rcx), %xmm5
    2f3a: 66 0f db cc                  	pand	%xmm4, %xmm1
    2f3e: 66 0f db c5                  	pand	%xmm5, %xmm0
    2f42: 66 0f eb c1                  	por	%xmm1, %xmm0
    2f46: 0f 11 46 10                  	movups	%xmm0, 16(%rsi)
    2f4a: 40 22 7a 20                  	andb	32(%rdx), %dil
    2f4e: 22 41 20                     	andb	32(%rcx), %al
    2f51: 09 c7                        	orl	%eax, %edi
    2f53: 40 88 7e 20                  	movb	%dil, 32(%rsi)
    2f57: c3                           	retq
    2f58: 45 31 c0                     	xorl	%r8d, %r8d
    2f5b: 0f 1f 44 00 00               	nopl	(%rax,%rax)
    2f60: 46 0f b6 0c 02               	movzbl	(%rdx,%r8), %r9d
    2f65: 46 0f b6 14 01               	movzbl	(%rcx,%r8), %r10d
    2f6a: 41 21 f9                     	andl	%edi, %r9d
    2f6d: 41 21 c2                     	andl	%eax, %r10d
    2f70: 45 09 d1                     	orl	%r10d, %r9d
    2f73: 46 88 0c 06                  	movb	%r9b, (%rsi,%r8)
    2f77: 49 83 c0 01                  	addq	$1, %r8
    2f7b: 49 83 f8 21                  	cmpq	$33, %r8
    2f7f: 75 df                        	jne	-33 <bn_conditional_selection+0xb0>
    2f81: c3                           	retq
    2f82: 66 66 2e 0f 1f 84 00 00 00 00 00     	nopw	%cs:(%rax,%rax)
    2f8d: 0f 1f 00                     	nopl	(%rax)

0000000000002f90 bn_is_bit_set:
    2f90: 85 f6                        	testl	%esi, %esi
    2f92: 8d 46 07                     	leal	7(%rsi), %eax
    2f95: 89 f2                        	movl	%esi, %edx
    2f97: 0f 49 c6                     	cmovnsl	%esi, %eax
    2f9a: c1 fa 1f                     	sarl	$31, %edx
    2f9d: c1 ea 1d                     	shrl	$29, %edx
    2fa0: c1 f8 03                     	sarl	$3, %eax
    2fa3: 8d 0c 16                     	leal	(%rsi,%rdx), %ecx
    2fa6: 48 98                        	cltq
    2fa8: 83 e1 07                     	andl	$7, %ecx
    2fab: 0f b6 04 07                  	movzbl	(%rdi,%rax), %eax
    2faf: 29 d1                        	subl	%edx, %ecx
    2fb1: d3 f8                        	sarl	%cl, %eax
    2fb3: 83 e0 01                     	andl	$1, %eax
    2fb6: c3                           	retq
    2fb7: 66 0f 1f 84 00 00 00 00 00   	nopw	(%rax,%rax)

0000000000002fc0 bn_conditional_swap:
    2fc0: 48 63 ff                     	movslq	%edi, %rdi
    2fc3: 48 8d 42 10                  	leaq	16(%rdx), %rax
    2fc7: 48 f7 df                     	negq	%rdi
    2fca: 48 39 c6                     	cmpq	%rax, %rsi
    2fcd: 73 09                        	jae	9 <bn_conditional_swap+0x18>
    2fcf: 48 8d 46 10                  	leaq	16(%rsi), %rax
    2fd3: 48 39 c2                     	cmpq	%rax, %rdx
    2fd6: 72 68                        	jb	104 <bn_conditional_swap+0x80>
    2fd8: f3 0f 6f 26                  	movdqu	(%rsi), %xmm4
    2fdc: f3 0f 6f 0a                  	movdqu	(%rdx), %xmm1
    2fe0: 48 89 7c 24 f0               	movq	%rdi, -16(%rsp)
    2fe5: f3 0f 7e 5c 24 f0            	movq	-16(%rsp), %xmm3
    2feb: 66 0f ef cc                  	pxor	%xmm4, %xmm1
    2fef: 66 0f 6f d4                  	movdqa	%xmm4, %xmm2
    2ff3: 66 0f 6c db                  	punpcklqdq	%xmm3, %xmm3
    2ff7: 66 0f db cb                  	pand	%xmm3, %xmm1
    2ffb: 66 0f ef d1                  	pxor	%xmm1, %xmm2
    2fff: 0f 11 16                     	movups	%xmm2, (%rsi)
    3002: f3 0f 6f 2a                  	movdqu	(%rdx), %xmm5
    3006: f3 0f 6f 42 10               	movdqu	16(%rdx), %xmm0
    300b: 66 0f ef cd                  	pxor	%xmm5, %xmm1
    300f: 0f 11 0a                     	movups	%xmm1, (%rdx)
    3012: f3 0f 6f 76 10               	movdqu	16(%rsi), %xmm6
    3017: 66 0f ef c6                  	pxor	%xmm6, %xmm0
    301b: 66 0f 6f ce                  	movdqa	%xmm6, %xmm1
    301f: 66 0f db c3                  	pand	%xmm3, %xmm0
    3023: 66 0f ef c8                  	pxor	%xmm0, %xmm1
    3027: 0f 11 4e 10                  	movups	%xmm1, 16(%rsi)
    302b: f3 0f 6f 7a 10               	movdqu	16(%rdx), %xmm7
    3030: 66 0f ef c7                  	pxor	%xmm7, %xmm0
    3034: 0f 11 42 10                  	movups	%xmm0, 16(%rdx)
    3038: c3                           	retq
    3039: 0f 1f 80 00 00 00 00         	nopl	(%rax)
    3040: 48 8b 0e                     	movq	(%rsi), %rcx
    3043: 48 8b 02                     	movq	(%rdx), %rax
    3046: 48 31 c8                     	xorq	%rcx, %rax
    3049: 48 21 f8                     	andq	%rdi, %rax
    304c: 48 31 c1                     	xorq	%rax, %rcx
    304f: 48 89 0e                     	movq	%rcx, (%rsi)
    3052: 48 31 02                     	xorq	%rax, (%rdx)
    3055: 48 8b 42 08                  	movq	8(%rdx), %rax
    3059: 48 8b 4e 08                  	movq	8(%rsi), %rcx
    305d: 48 31 c8                     	xorq	%rcx, %rax
    3060: 48 21 f8                     	andq	%rdi, %rax
    3063: 48 31 c1                     	xorq	%rax, %rcx
    3066: 48 89 4e 08                  	movq	%rcx, 8(%rsi)
    306a: 48 31 42 08                  	xorq	%rax, 8(%rdx)
    306e: 48 8b 42 10                  	movq	16(%rdx), %rax
    3072: 48 8b 4e 10                  	movq	16(%rsi), %rcx
    3076: 48 31 c8                     	xorq	%rcx, %rax
    3079: 48 21 f8                     	andq	%rdi, %rax
    307c: 48 31 c1                     	xorq	%rax, %rcx
    307f: 48 89 4e 10                  	movq	%rcx, 16(%rsi)
    3083: 48 8b 4a 18                  	movq	24(%rdx), %rcx
    3087: 48 31 42 10                  	xorq	%rax, 16(%rdx)
    308b: 48 8b 46 18                  	movq	24(%rsi), %rax
    308f: 48 31 c1                     	xorq	%rax, %rcx
    3092: 48 21 cf                     	andq	%rcx, %rdi
    3095: 48 31 f8                     	xorq	%rdi, %rax
    3098: 48 89 46 18                  	movq	%rax, 24(%rsi)
    309c: 48 31 7a 18                  	xorq	%rdi, 24(%rdx)
    30a0: c3                           	retq
    30a1: 66 66 2e 0f 1f 84 00 00 00 00 00     	nopw	%cs:(%rax,%rax)
    30ac: 0f 1f 40 00                  	nopl	(%rax)

00000000000030b0 nibbleFromChar:
    30b0: 8d 47 d0                     	leal	-48(%rdi), %eax
    30b3: 3c 09                        	cmpb	$9, %al
    30b5: 76 17                        	jbe	23 <nibbleFromChar+0x1e>
    30b7: 8d 47 9f                     	leal	-97(%rdi), %eax
    30ba: 3c 05                        	cmpb	$5, %al
    30bc: 76 12                        	jbe	18 <nibbleFromChar+0x20>
    30be: 8d 47 bf                     	leal	-65(%rdi), %eax
    30c1: 83 ef 37                     	subl	$55, %edi
    30c4: 3c 06                        	cmpb	$6, %al
    30c6: b8 ff ff ff ff               	movl	$4294967295, %eax
    30cb: 0f 42 c7                     	cmovbl	%edi, %eax
    30ce: c3                           	retq
    30cf: 90                           	nop
    30d0: 8d 47 a9                     	leal	-87(%rdi), %eax
    30d3: c3                           	retq
    30d4: 66 66 2e 0f 1f 84 00 00 00 00 00     	nopw	%cs:(%rax,%rax)
    30df: 90                           	nop

00000000000030e0 hexToBytes:
    30e0: 85 d2                        	testl	%edx, %edx
    30e2: 7e 7a                        	jle	122 <hexToBytes+0x7e>
    30e4: 48 63 c2                     	movslq	%edx, %rax
    30e7: 41 ba f0 ff ff ff            	movl	$4294967280, %r10d
    30ed: 41 b9 ff ff ff ff            	movl	$4294967295, %r9d
    30f3: 4c 8d 44 06 fe               	leaq	-2(%rsi,%rax), %r8
    30f8: 48 8d 4c 06 ff               	leaq	-1(%rsi,%rax), %rcx
    30fd: 8d 42 ff                     	leal	-1(%rdx), %eax
    3100: 49 29 c0                     	subq	%rax, %r8
    3103: 0f 1f 44 00 00               	nopl	(%rax,%rax)
    3108: 0f b6 37                     	movzbl	(%rdi), %esi
    310b: 8d 46 d0                     	leal	-48(%rsi), %eax
    310e: 3c 09                        	cmpb	$9, %al
    3110: 76 14                        	jbe	20 <hexToBytes+0x46>
    3112: 8d 46 9f                     	leal	-97(%rsi), %eax
    3115: 3c 05                        	cmpb	$5, %al
    3117: 76 47                        	jbe	71 <hexToBytes+0x80>
    3119: 8d 46 bf                     	leal	-65(%rsi), %eax
    311c: 44 89 d2                     	movl	%r10d, %edx
    311f: 3c 05                        	cmpb	$5, %al
    3121: 77 08                        	ja	8 <hexToBytes+0x4b>
    3123: 8d 46 c9                     	leal	-55(%rsi), %eax
    3126: c1 e0 04                     	shll	$4, %eax
    3129: 89 c2                        	movl	%eax, %edx
    312b: 0f b6 77 01                  	movzbl	1(%rdi), %esi
    312f: 8d 46 d0                     	leal	-48(%rsi), %eax
    3132: 3c 09                        	cmpb	$9, %al
    3134: 76 17                        	jbe	23 <hexToBytes+0x6d>
    3136: 8d 46 9f                     	leal	-97(%rsi), %eax
    3139: 3c 05                        	cmpb	$5, %al
    313b: 76 33                        	jbe	51 <hexToBytes+0x90>
    313d: 44 8d 5e bf                  	leal	-65(%rsi), %r11d
    3141: 44 89 c8                     	movl	%r9d, %eax
    3144: 41 80 fb 05                  	cmpb	$5, %r11b
    3148: 77 05                        	ja	5 <hexToBytes+0x6f>
    314a: 8d 46 c9                     	leal	-55(%rsi), %eax
    314d: 09 d0                        	orl	%edx, %eax
    314f: 88 01                        	movb	%al, (%rcx)
    3151: 48 83 e9 01                  	subq	$1, %rcx
    3155: 48 83 c7 02                  	addq	$2, %rdi
    3159: 4c 39 c1                     	cmpq	%r8, %rcx
    315c: 75 aa                        	jne	-86 <hexToBytes+0x28>
    315e: c3                           	retq
    315f: 90                           	nop
    3160: 8d 46 a9                     	leal	-87(%rsi), %eax
    3163: c1 e0 04                     	shll	$4, %eax
    3166: 89 c2                        	movl	%eax, %edx
    3168: eb c1                        	jmp	-63 <hexToBytes+0x4b>
    316a: 66 0f 1f 44 00 00            	nopw	(%rax,%rax)
    3170: 8d 46 a9                     	leal	-87(%rsi), %eax
    3173: 09 d0                        	orl	%edx, %eax
    3175: eb d8                        	jmp	-40 <hexToBytes+0x6f>
    3177: 66 0f 1f 84 00 00 00 00 00   	nopw	(%rax,%rax)

0000000000003180 __libc_csu_init:
    3180: 41 57                        	pushq	%r15
    3182: 49 89 d7                     	movq	%rdx, %r15
    3185: 41 56                        	pushq	%r14
    3187: 49 89 f6                     	movq	%rsi, %r14
    318a: 41 55                        	pushq	%r13
    318c: 41 89 fd                     	movl	%edi, %r13d
    318f: 41 54                        	pushq	%r12
    3191: 4c 8d 25 50 2c 00 00         	leaq	11344(%rip), %r12
    3198: 55                           	pushq	%rbp
    3199: 48 8d 2d 50 2c 00 00         	leaq	11344(%rip), %rbp
    31a0: 53                           	pushq	%rbx
    31a1: 4c 29 e5                     	subq	%r12, %rbp
    31a4: 48 83 ec 08                  	subq	$8, %rsp
    31a8: e8 53 de ff ff               	callq	-8621 <_init>
    31ad: 48 c1 fd 03                  	sarq	$3, %rbp
    31b1: 74 1b                        	je	27 <__libc_csu_init+0x4e>
    31b3: 31 db                        	xorl	%ebx, %ebx
    31b5: 0f 1f 00                     	nopl	(%rax)
    31b8: 4c 89 fa                     	movq	%r15, %rdx
    31bb: 4c 89 f6                     	movq	%r14, %rsi
    31be: 44 89 ef                     	movl	%r13d, %edi
    31c1: 41 ff 14 dc                  	callq	*(%r12,%rbx,8)
    31c5: 48 83 c3 01                  	addq	$1, %rbx
    31c9: 48 39 dd                     	cmpq	%rbx, %rbp
    31cc: 75 ea                        	jne	-22 <__libc_csu_init+0x38>
    31ce: 48 83 c4 08                  	addq	$8, %rsp
    31d2: 5b                           	popq	%rbx
    31d3: 5d                           	popq	%rbp
    31d4: 41 5c                        	popq	%r12
    31d6: 41 5d                        	popq	%r13
    31d8: 41 5e                        	popq	%r14
    31da: 41 5f                        	popq	%r15
    31dc: c3                           	retq
    31dd: 0f 1f 00                     	nopl	(%rax)

00000000000031e0 __libc_csu_fini:
    31e0: c3                           	retq

Disassembly of section .fini:

00000000000031e4 _fini:
    31e4: 48 83 ec 08                  	subq	$8, %rsp
    31e8: 48 83 c4 08                  	addq	$8, %rsp
    31ec: c3                           	retq

Disassembly of section .rodata:

0000000000004000 _IO_stdin_used:
    4000: 01 00                        	addl	%eax, (%rax)
    4002: 02 00                        	addb	(%rax), %al
    4004: 41 72 67                     	jb	103 <order+0x2e>
    4007: 75 6d                        	jne	109 <order+0x36>
    4009: 65 6e                        	outsb	%gs:(%rsi), %dx
    400b: 74 20                        	je	32 <_IO_stdin_used+0x2d>
    400d: 6d                           	insl	%dx, %es:(%rdi)
    400e: 69 73 73 69 6e 67 0a         	imull	$174550633, 115(%rbx), %esi
    4015: 00 61 00                     	addb	%ah, (%rcx)
    4018: 6f                           	outsl	(%rsi), %dx
    4019: 75 74                        	jne	116 <def_yG+0xf>
    401b: 70 75                        	jo	117 <def_yG+0x12>
    401d: 74 2e                        	je	46 <order+0xd>
    401f: 74 78                        	je	120 <def_yG+0x19>
    4021: 74 00                        	je	0 <_IO_stdin_used+0x23>
    4023: 25 30 32 78 00               	andl	$7877168, %eax
    4028: 25 30 31 36 6c               	andl	$1815490864, %eax
    402d: 78 00                        	js	0 <_IO_stdin_used+0x2f>
		...
    403f: 00 51 25                     	addb	%dl, 37(%rcx)

0000000000004040 order:
    4040: 51                           	pushq	%rcx
    4041: 25 63 fc c2 ca               	andl	$3401776227, %eax
    4046: b9 f3 84 9e 17               	movl	$396264691, %ecx
    404b: a7                           	cmpsl	%es:(%rdi), (%rsi)
    404c: ad                           	lodsl	(%rsi), %eax
    404d: fa                           	cli
    404e: e6 bc                        	outb	%al, $188
    4050: ff ff                        	<unknown>
    4052: ff ff                        	<unknown>
    4054: ff ff                        	<unknown>
    4056: ff ff                        	<unknown>
    4058: 00 00                        	addb	%al, (%rax)
    405a: 00 00                        	addb	%al, (%rax)
    405c: ff ff                        	<unknown>
    405e: ff ff                        	<unknown>
		...

0000000000004080 def_yG:
    4080: 0a 56 95                     	orb	-107(%rsi), %dl
    4083: ce                           	<unknown>
    4084: 57                           	pushq	%rdi
    4085: 53                           	pushq	%rbx
    4086: f2 dd 5c e4 19               	repne		fstpl	25(%rsp,%riz,8)
    408b: ba e4 b8 4a 8b               	movl	$2336930020, %edx
    4090: 25 f3 21 dd 88               	andl	$2296193523, %eax
    4095: 86 e8                        	xchgb	%al, %ch
    4097: d2 85 5d 88 25 18            	rolb	%cl, 405112925(%rbp)
    409d: ff 71 85                     	pushq	-123(%rcx)

00000000000040a0 def_xG:
    40a0: 3c 14                        	cmpb	$20, %al
    40a2: a9 18 d4 30 e7               	testl	$3878736920, %eax
    40a7: 79 01                        	jns	1 <def_xG+0xa>
    40a9: b6 ed                        	movb	$-19, %dh
    40ab: 5f                           	popq	%rdi
    40ac: fc                           	cld
    40ad: 95                           	xchgl	%ebp, %eax
    40ae: ba 75 10 25 62               	movl	$1646596213, %edx
    40b3: 77 2b                        	ja	43 <__GNU_EH_FRAME_HDR>
    40b5: 73 fb                        	jae	-5 <def_xG+0x12>
    40b7: 79 c6                        	jns	-58 <order+0x3f>
    40b9: 55                           	pushq	%rbp
    40ba: 37                           	<unknown>
    40bb: a5                           	movsl	(%rsi), %es:(%rdi)
    40bc: 76 5f                        	jbe	95 <__GNU_EH_FRAME_HDR+0x3d>
    40be: 90                           	nop
    40bf: 18 01                        	sbbb	%al, (%rcx)

00000000000040c0 ONE:
    40c0: 01 00                        	addl	%eax, (%rax)
		...
    40ca: 00 00                        	addb	%al, (%rax)
    40cc: ff ff                        	<unknown>
    40ce: ff ff                        	<unknown>
    40d0: ff ff                        	<unknown>
    40d2: ff ff                        	<unknown>
    40d4: ff ff                        	<unknown>
    40d6: ff ff                        	<unknown>
    40d8: fe ff                        	<unknown>
    40da: ff ff                        	<unknown>
    40dc: 00 00                        	addb	%al, (%rax)
    40de: 00 00                        	addb	%al, (%rax)

Disassembly of section .eh_frame_hdr:

00000000000040e0 __GNU_EH_FRAME_HDR:
    40e0: 01 1b                        	addl	%ebx, (%rbx)
    40e2: 03 3b                        	addl	(%rbx), %edi
    40e4: 14 01                        	adcb	$1, %al
    40e6: 00 00                        	addb	%al, (%rax)
    40e8: 21 00                        	andl	%eax, (%rax)
    40ea: 00 00                        	addb	%al, (%rax)
    40ec: 40 cf                        	iretl
    40ee: ff ff                        	<unknown>
    40f0: 60                           	<unknown>
    40f1: 01 00                        	addl	%eax, (%rax)
    40f3: 00 a0 cf ff ff 88            	addb	%ah, -1996488753(%rax)
    40f9: 01 00                        	addl	%eax, (%rax)
    40fb: 00 e0                        	addb	%ah, %al
    40fd: cf                           	iretl
    40fe: ff ff                        	<unknown>
    4100: 18 02                        	sbbb	%al, (%rdx)
    4102: 00 00                        	addb	%al, (%rax)
    4104: 30 d1                        	xorb	%dl, %cl
    4106: ff ff                        	<unknown>
    4108: 30 01                        	xorb	%al, (%rcx)
    410a: 00 00                        	addb	%al, (%rax)
    410c: 20 d2                        	andb	%dl, %dl
    410e: ff ff                        	<unknown>
    4110: a0 01 00 00 60 d2 ff ff cc   	movabsb	-3674937491892207615, %al
    4119: 01 00                        	addl	%eax, (%rax)
    411b: 00 e0                        	addb	%ah, %al
    411d: d5                           	<unknown>
    411e: ff ff                        	<unknown>
    4120: 60                           	<unknown>
    4121: 02 00                        	addb	(%rax), %al
    4123: 00 60 d6                     	addb	%ah, -42(%rax)
    4126: ff ff                        	<unknown>
    4128: 84 02                        	testb	%al, (%rdx)
    412a: 00 00                        	addb	%al, (%rax)
    412c: 20 d7                        	andb	%dl, %bh
    412e: ff ff                        	<unknown>
    4130: a8 02                        	testb	$2, %al
    4132: 00 00                        	addb	%al, (%rax)
    4134: 00 d8                        	addb	%bl, %al
    4136: ff ff                        	<unknown>
    4138: cc                           	int3
    4139: 02 00                        	addb	(%rax), %al
    413b: 00 80 d8 ff ff f0            	addb	%al, -251658280(%rax)
    4141: 02 00                        	addb	(%rax), %al
    4143: 00 00                        	addb	%al, (%rax)
    4145: d9 ff                        	fcos
    4147: ff 14 03                     	callq	*(%rbx,%rax)
    414a: 00 00                        	addb	%al, (%rax)
    414c: 80 d9 ff                     	sbbb	$-1, %cl
    414f: ff 38                        	<unknown>
    4151: 03 00                        	addl	(%rax), %eax
    4153: 00 a0 d9 ff ff 4c            	addb	%ah, 1291845593(%rax)
    4159: 03 00                        	addl	(%rax), %eax
    415b: 00 00                        	addb	%al, (%rax)
    415d: da ff                        	<unknown>
    415f: ff 8c 03 00 00 40 dc         	decl	-599785472(%rbx,%rax)
    4166: ff ff                        	<unknown>
    4168: a0 03 00 00 a0 dc ff ff e0   	movabsb	-2233785567110234109, %al
    4171: 03 00                        	addl	(%rax), %eax
    4173: 00 60 de                     	addb	%ah, -34(%rax)
    4176: ff ff                        	<unknown>
    4178: f4                           	hlt
    4179: 03 00                        	addl	(%rax), %eax
    417b: 00 60 df                     	addb	%ah, -33(%rax)
    417e: ff ff                        	<unknown>
    4180: 18 04 00                     	sbbb	%al, (%rax,%rax)
    4183: 00 c0                        	addb	%al, %al
    4185: df ff                        	<unknown>
    4187: ff 2c 04                     	ljmpl	*(%rsp,%rax)
    418a: 00 00                        	addb	%al, (%rax)
    418c: 20 e0                        	andb	%ah, %al
    418e: ff ff                        	<unknown>
    4190: 40 04 00                     	addb	$0, %al
    4193: 00 60 e0                     	addb	%ah, -32(%rax)
    4196: ff ff                        	<unknown>
    4198: 54                           	pushq	%rsp
    4199: 04 00                        	addb	$0, %al
    419b: 00 c0                        	addb	%al, %al
    419d: e0 ff                        	loopne	-1
    419f: ff 68 04                     	ljmpl	*4(%rax)
    41a2: 00 00                        	addb	%al, (%rax)
    41a4: c0 e3 ff                     	shlb	$255, %bl
    41a7: ff b0 04 00 00 f0            	pushq	-268435452(%rax)
    41ad: ea                           	<unknown>
    41ae: ff ff                        	<unknown>
    41b0: 08 05 00 00 a0 ed            	orb	%al, -308281344(%rip)
    41b6: ff ff                        	<unknown>
    41b8: 54                           	pushq	%rsp
    41b9: 05 00 00 d0 ed               	addl	$3989831680, %eax
    41be: ff ff                        	<unknown>
    41c0: 68 05 00 00 b0               	pushq	$-1342177275
    41c5: ee                           	outb	%al, %dx
    41c6: ff ff                        	<unknown>
    41c8: 7c 05                        	jl	5 <__GNU_EH_FRAME_HDR+0xef>
    41ca: 00 00                        	addb	%al, (%rax)
    41cc: e0 ee                        	loopne	-18
    41ce: ff ff                        	<unknown>
    41d0: 90                           	nop
    41d1: 05 00 00 d0 ef               	addl	$4023386112, %eax
    41d6: ff ff                        	<unknown>
    41d8: a4                           	movsb	(%rsi), %es:(%rdi)
    41d9: 05 00 00 00 f0               	addl	$4026531840, %eax
    41de: ff ff                        	<unknown>
    41e0: b8 05 00 00 a0               	movl	$2684354565, %eax
    41e5: f0                           	lock
    41e6: ff ff                        	<unknown>
    41e8: d0 05 00 00 00 f1            	rolb	-251658240(%rip)
    41ee: ff ff                        	<unknown>
    41f0: 18 06                        	sbbb	%al, (%rsi)
    41f2: 00 00                        	addb	%al, (%rax)

Disassembly of section .eh_frame:

00000000000041f8 .eh_frame:
    41f8: 14 00                        	adcb	$0, %al
    41fa: 00 00                        	addb	%al, (%rax)
    41fc: 00 00                        	addb	%al, (%rax)
    41fe: 00 00                        	addb	%al, (%rax)
    4200: 01 7a 52                     	addl	%edi, 82(%rdx)
    4203: 00 01                        	addb	%al, (%rcx)
    4205: 78 10                        	js	16 <.eh_frame+0x1f>
    4207: 01 1b                        	addl	%ebx, (%rbx)
    4209: 0c 07                        	orb	$7, %al
    420b: 08 90 01 07 10 14            	orb	%dl, 336594689(%rax)
    4211: 00 00                        	addb	%al, (%rax)
    4213: 00 1c 00                     	addb	%bl, (%rax,%rax)
    4216: 00 00                        	addb	%al, (%rax)
    4218: f8                           	clc
    4219: cf                           	iretl
    421a: ff ff                        	<unknown>
    421c: 2b 00                        	subl	(%rax), %eax
		...
    4226: 00 00                        	addb	%al, (%rax)
    4228: 14 00                        	adcb	$0, %al
    422a: 00 00                        	addb	%al, (%rax)
    422c: 00 00                        	addb	%al, (%rax)
    422e: 00 00                        	addb	%al, (%rax)
    4230: 01 7a 52                     	addl	%edi, 82(%rdx)
    4233: 00 01                        	addb	%al, (%rcx)
    4235: 78 10                        	js	16 <.eh_frame+0x4f>
    4237: 01 1b                        	addl	%ebx, (%rbx)
    4239: 0c 07                        	orb	$7, %al
    423b: 08 90 01 00 00 24            	orb	%dl, 603979777(%rax)
    4241: 00 00                        	addb	%al, (%rax)
    4243: 00 1c 00                     	addb	%bl, (%rax,%rax)
    4246: 00 00                        	addb	%al, (%rax)
    4248: d8 cd                        	fmul	%st(5), %st
    424a: ff ff                        	<unknown>
    424c: 60                           	<unknown>
    424d: 00 00                        	addb	%al, (%rax)
    424f: 00 00                        	addb	%al, (%rax)
    4251: 0e                           	<unknown>
    4252: 10 46 0e                     	adcb	%al, 14(%rsi)
    4255: 18 4a 0f                     	sbbb	%cl, 15(%rdx)
    4258: 0b 77 08                     	orl	8(%rdi), %esi
    425b: 80 00 3f                     	addb	$63, (%rax)
    425e: 1a 3b                        	sbbb	(%rbx), %bh
    4260: 2a 33                        	subb	(%rbx), %dh
    4262: 24 22                        	andb	$34, %al
    4264: 00 00                        	addb	%al, (%rax)
    4266: 00 00                        	addb	%al, (%rax)
    4268: 14 00                        	adcb	$0, %al
    426a: 00 00                        	addb	%al, (%rax)
    426c: 44 00 00                     	addb	%r8b, (%rax)
    426f: 00 10                        	addb	%dl, (%rax)
    4271: ce                           	<unknown>
    4272: ff ff                        	<unknown>
    4274: 08 00                        	orb	%al, (%rax)
		...
    427e: 00 00                        	addb	%al, (%rax)
    4280: 28 00                        	subb	%al, (%rax)
    4282: 00 00                        	addb	%al, (%rax)
    4284: 5c                           	popq	%rsp
    4285: 00 00                        	addb	%al, (%rax)
    4287: 00 78 d0                     	addb	%bh, -48(%rax)
    428a: ff ff                        	<unknown>
    428c: 36 00 00                     	addb	%al, %ss:(%rax)
    428f: 00 00                        	addb	%al, (%rax)
    4291: 42 0e                        	<unknown>
    4293: 10 8c 02 44 0e 18 86         	adcb	%cl, -2045243836(%rdx,%rax)
    429a: 03 44 0e 20                  	addl	32(%rsi,%rcx), %eax
    429e: 83 04 64 0e                  	addl	$14, (%rsp,%riz,2)
    42a2: 18 41 0e                     	sbbb	%al, 14(%rcx)
    42a5: 10 42 0e                     	adcb	%al, 14(%rdx)
    42a8: 08 00                        	orb	%al, (%rax)
    42aa: 00 00                        	addb	%al, (%rax)
    42ac: 48 00 00                     	addb	%al, (%rax)
    42af: 00 88 00 00 00 8c            	addb	%cl, -1946157056(%rax)
    42b5: d0 ff                        	sarb	%bh
    42b7: ff 5a 02                     	lcalll	*2(%rdx)
    42ba: 00 00                        	addb	%al, (%rax)
    42bc: 00 42 0e                     	addb	%al, 14(%rdx)
    42bf: 10 8f 02 53 0e 18            	adcb	%cl, 403591938(%rdi)
    42c5: 8e 03                        	movw	(%rbx), %es
    42c7: 42 0e                        	<unknown>
    42c9: 20 8d 04 42 0e 28            	andb	%cl, 672023044(%rbp)
    42cf: 8c 05 41 0e 30 86            	movw	%es, -2043670975(%rip)
    42d5: 06                           	<unknown>
    42d6: 43 0e                        	<unknown>
    42d8: 38 83 07 47 0e 90            	cmpb	%al, -1878112505(%rbx)
    42de: 04 03                        	addb	$3, %al
    42e0: 2b 02                        	subl	(%rdx), %eax
    42e2: 0e                           	<unknown>
    42e3: 38 41 0e                     	cmpb	%al, 14(%rcx)
    42e6: 30 41 0e                     	xorb	%al, 14(%rcx)
    42e9: 28 42 0e                     	subb	%al, 14(%rdx)
    42ec: 20 42 0e                     	andb	%al, 14(%rdx)
    42ef: 18 42 0e                     	sbbb	%al, 14(%rdx)
    42f2: 10 42 0e                     	adcb	%al, 14(%rdx)
    42f5: 08 00                        	orb	%al, (%rax)
    42f7: 00 44 00 00                  	addb	%al, (%rax,%rax)
    42fb: 00 d4                        	addb	%dl, %ah
    42fd: 00 00                        	addb	%al, (%rax)
    42ff: 00 c0                        	addb	%al, %al
    4301: cd ff                        	int	$255
    4303: ff 4e 01                     	decl	1(%rsi)
    4306: 00 00                        	addb	%al, (%rax)
    4308: 00 42 0e                     	addb	%al, 14(%rdx)
    430b: 10 8e 02 46 0e 18            	adcb	%cl, 403588610(%rsi)
    4311: 8d 03                        	leal	(%rbx), %eax
    4313: 42 0e                        	<unknown>
    4315: 20 8c 04 41 0e 28 86         	andb	%cl, -2044195263(%rsp,%rax)
    431c: 05 41 0e 30 83               	addl	$2200964673, %eax
    4321: 06                           	<unknown>
    4322: 44 0e                        	<unknown>
    4324: a0 01 02 43 0a 0e 30 43 0e   	movabsb	1027717976830444033, %al
    432d: 28 41 0e                     	subb	%al, 14(%rcx)
    4330: 20 42 0e                     	andb	%al, 14(%rdx)
    4333: 18 42 0e                     	sbbb	%al, 14(%rdx)
    4336: 10 42 0e                     	adcb	%al, 14(%rdx)
    4339: 08 41 0b                     	orb	%al, 11(%rcx)
    433c: 00 00                        	addb	%al, (%rax)
    433e: 00 00                        	addb	%al, (%rax)
    4340: 20 00                        	andb	%al, (%rax)
    4342: 00 00                        	addb	%al, (%rax)
    4344: 1c 01                        	sbbb	$1, %al
    4346: 00 00                        	addb	%al, (%rax)
    4348: 78 d3                        	js	-45 <.eh_frame+0x125>
    434a: ff ff                        	<unknown>
    434c: 7b 00                        	jnp	0 <.eh_frame+0x156>
    434e: 00 00                        	addb	%al, (%rax)
    4350: 00 42 0e                     	addb	%al, 14(%rdx)
    4353: 10 8c 02 42 0e 18 8d         	adcb	%cl, -1927803326(%rdx,%rax)
    435a: 03 02                        	addl	(%rdx), %eax
    435c: 6b cd 45                     	imull	$69, %ebp, %ecx
    435f: cc                           	int3
    4360: 45 0e                        	<unknown>
    4362: 08 00                        	orb	%al, (%rax)
    4364: 20 00                        	andb	%al, (%rax)
    4366: 00 00                        	addb	%al, (%rax)
    4368: 40 01 00                     	addl	%eax, (%rax)
    436b: 00 d4                        	addb	%dl, %ah
    436d: d3 ff                        	sarl	%cl, %edi
    436f: ff a9 00 00 00 00            	ljmpl	*(%rcx)
    4375: 42 0e                        	<unknown>
    4377: 10 8c 02 42 0e 18 8d         	adcb	%cl, -1927803326(%rdx,%rax)
    437e: 03 02                        	addl	(%rdx), %eax
    4380: 99                           	cltd
    4381: cd 45                        	int	$69
    4383: cc                           	int3
    4384: 45 0e                        	<unknown>
    4386: 08 00                        	orb	%al, (%rax)
    4388: 20 00                        	andb	%al, (%rax)
    438a: 00 00                        	addb	%al, (%rax)
    438c: 64 01 00                     	addl	%eax, %fs:(%rax)
    438f: 00 70 d4                     	addb	%dh, -44(%rax)
    4392: ff ff                        	<unknown>
    4394: c7 00 00 00 00 42            	movl	$1107296256, (%rax)
    439a: 0e                           	<unknown>
    439b: 10 8c 02 42 0e 18 8d         	adcb	%cl, -1927803326(%rdx,%rax)
    43a2: 03 02                        	addl	(%rdx), %eax
    43a4: b7 cd                        	movb	$-51, %bh
    43a6: 45 cc                        	int3
    43a8: 45 0e                        	<unknown>
    43aa: 08 00                        	orb	%al, (%rax)
    43ac: 20 00                        	andb	%al, (%rax)
    43ae: 00 00                        	addb	%al, (%rax)
    43b0: 88 01                        	movb	%al, (%rcx)
    43b2: 00 00                        	addb	%al, (%rax)
    43b4: 2c d5                        	subb	$-43, %al
    43b6: ff ff                        	<unknown>
    43b8: 7e 00                        	jle	0 <.eh_frame+0x1c2>
    43ba: 00 00                        	addb	%al, (%rax)
    43bc: 00 42 0e                     	addb	%al, 14(%rdx)
    43bf: 10 8c 02 42 0e 18 8d         	adcb	%cl, -1927803326(%rdx,%rax)
    43c6: 03 02                        	addl	(%rdx), %eax
    43c8: 6e                           	outsb	(%rsi), %dx
    43c9: cd 45                        	int	$69
    43cb: cc                           	int3
    43cc: 45 0e                        	<unknown>
    43ce: 08 00                        	orb	%al, (%rax)
    43d0: 20 00                        	andb	%al, (%rax)
    43d2: 00 00                        	addb	%al, (%rax)
    43d4: ac                           	lodsb	(%rsi), %al
    43d5: 01 00                        	addl	%eax, (%rax)
    43d7: 00 88 d5 ff ff 7d            	addb	%cl, 2113929173(%rax)
    43dd: 00 00                        	addb	%al, (%rax)
    43df: 00 00                        	addb	%al, (%rax)
    43e1: 42 0e                        	<unknown>
    43e3: 10 8c 02 42 0e 18 8d         	adcb	%cl, -1927803326(%rdx,%rax)
    43ea: 03 02                        	addl	(%rdx), %eax
    43ec: 6d                           	insl	%dx, %es:(%rdi)
    43ed: cd 45                        	int	$69
    43ef: cc                           	int3
    43f0: 45 0e                        	<unknown>
    43f2: 08 00                        	orb	%al, (%rax)
    43f4: 20 00                        	andb	%al, (%rax)
    43f6: 00 00                        	addb	%al, (%rax)
    43f8: d0 01                        	rolb	(%rcx)
    43fa: 00 00                        	addb	%al, (%rax)
    43fc: e4 d5                        	inb	$213, %al
    43fe: ff ff                        	<unknown>
    4400: 7a 00                        	jp	0 <.eh_frame+0x20a>
    4402: 00 00                        	addb	%al, (%rax)
    4404: 00 42 0e                     	addb	%al, 14(%rdx)
    4407: 10 8c 02 42 0e 18 8d         	adcb	%cl, -1927803326(%rdx,%rax)
    440e: 03 02                        	addl	(%rdx), %eax
    4410: 6a cd                        	pushq	$-51
    4412: 45 cc                        	int3
    4414: 45 0e                        	<unknown>
    4416: 08 00                        	orb	%al, (%rax)
    4418: 10 00                        	adcb	%al, (%rax)
    441a: 00 00                        	addb	%al, (%rax)
    441c: f4                           	hlt
    441d: 01 00                        	addl	%eax, (%rax)
    441f: 00 40 d6                     	addb	%al, -42(%rax)
    4422: ff ff                        	<unknown>
    4424: 09 00                        	orl	%eax, (%rax)
    4426: 00 00                        	addb	%al, (%rax)
    4428: 00 00                        	addb	%al, (%rax)
    442a: 00 00                        	addb	%al, (%rax)
    442c: 3c 00                        	cmpb	$0, %al
    442e: 00 00                        	addb	%al, (%rax)
    4430: 08 02                        	orb	%al, (%rdx)
    4432: 00 00                        	addb	%al, (%rax)
    4434: 4c d6                        	<unknown>
    4436: ff ff                        	<unknown>
    4438: 48 00 00                     	addb	%al, (%rax)
    443b: 00 00                        	addb	%al, (%rax)
    443d: 41 0e                        	<unknown>
    443f: 10 86 02 41 0e 18            	adcb	%al, 403587330(%rsi)
    4445: 83 03 42                     	addl	$66, (%rbx)
    4448: 0e                           	<unknown>
    4449: 20 8c 04 42 0e 28 8d         	andb	%cl, -1926754750(%rsp,%rax)
    4450: 05 42 0e 30 8e               	addl	$2385514050, %eax
    4455: 06                           	<unknown>
    4456: 42 0e                        	<unknown>
    4458: 38 8f 07 5e cf 45            	cmpb	%cl, 1171217927(%rdi)
    445e: ce                           	<unknown>
    445f: 45 cd 45                     	int	$69
    4462: cc                           	int3
    4463: 45 c3                        	retq
    4465: 45 c6 45 0e 08               	movb	$8, 14(%r13)
    446a: 00 00                        	addb	%al, (%rax)
    446c: 10 00                        	adcb	%al, (%rax)
    446e: 00 00                        	addb	%al, (%rax)
    4470: 48 02 00                     	addb	(%rax), %al
    4473: 00 6c d6 ff                  	addb	%ch, -1(%rsi,%rdx,8)
    4477: ff 2d 02 00 00 00            	ljmpl	*2(%rip)
    447d: 00 00                        	addb	%al, (%rax)
    447f: 00 3c 00                     	addb	%bh, (%rax,%rax)
    4482: 00 00                        	addb	%al, (%rax)
    4484: 5c                           	popq	%rsp
    4485: 02 00                        	addb	(%rax), %al
    4487: 00 98 d8 ff ff 42            	addb	%bl, 1124073432(%rax)
    448d: 00 00                        	addb	%al, (%rax)
    448f: 00 00                        	addb	%al, (%rax)
    4491: 41 0e                        	<unknown>
    4493: 10 86 02 41 0e 18            	adcb	%al, 403587330(%rsi)
    4499: 83 03 42                     	addl	$66, (%rbx)
    449c: 0e                           	<unknown>
    449d: 20 8c 04 42 0e 28 8d         	andb	%cl, -1926754750(%rsp,%rax)
    44a4: 05 42 0e 30 8e               	addl	$2385514050, %eax
    44a9: 06                           	<unknown>
    44aa: 42 0e                        	<unknown>
    44ac: 38 8f 07 58 cf 45            	cmpb	%cl, 1171216391(%rdi)
    44b2: ce                           	<unknown>
    44b3: 45 cd 45                     	int	$69
    44b6: cc                           	int3
    44b7: 45 c3                        	retq
    44b9: 45 c6 45 0e 08               	movb	$8, 14(%r13)
    44be: 00 00                        	addb	%al, (%rax)
    44c0: 10 00                        	adcb	%al, (%rax)
    44c2: 00 00                        	addb	%al, (%rax)
    44c4: 9c                           	pushfq
    44c5: 02 00                        	addb	(%rax), %al
    44c7: 00 b8 d8 ff ff a1            	addb	%bh, -1577058344(%rax)
    44cd: 01 00                        	addl	%eax, (%rax)
    44cf: 00 00                        	addb	%al, (%rax)
    44d1: 00 00                        	addb	%al, (%rax)
    44d3: 00 20                        	addb	%ah, (%rax)
    44d5: 00 00                        	addb	%al, (%rax)
    44d7: 00 b0 02 00 00 64            	addb	%dh, 1677721602(%rax)
    44dd: da ff                        	<unknown>
    44df: ff ee                        	<unknown>
    44e1: 00 00                        	addb	%al, (%rax)
    44e3: 00 00                        	addb	%al, (%rax)
    44e5: 42 0e                        	<unknown>
    44e7: 10 8c 02 42 0e 18 8d         	adcb	%cl, -1927803326(%rdx,%rax)
    44ee: 03 02                        	addl	(%rdx), %eax
    44f0: de cd                        	fmulp	%st, %st(5)
    44f2: 45 cc                        	int3
    44f4: 45 0e                        	<unknown>
    44f6: 08 00                        	orb	%al, (%rax)
    44f8: 10 00                        	adcb	%al, (%rax)
    44fa: 00 00                        	addb	%al, (%rax)
    44fc: d4                           	<unknown>
    44fd: 02 00                        	addb	(%rax), %al
    44ff: 00 40 db                     	addb	%al, -37(%rax)
    4502: ff ff                        	<unknown>
    4504: 55                           	pushq	%rbp
    4505: 00 00                        	addb	%al, (%rax)
    4507: 00 00                        	addb	%al, (%rax)
    4509: 00 00                        	addb	%al, (%rax)
    450b: 00 10                        	addb	%dl, (%rax)
    450d: 00 00                        	addb	%al, (%rax)
    450f: 00 e8                        	addb	%ch, %al
    4511: 02 00                        	addb	(%rax), %al
    4513: 00 8c db ff ff 50 00         	addb	%cl, 5308415(%rbx,%rbx,8)
    451a: 00 00                        	addb	%al, (%rax)
    451c: 00 00                        	addb	%al, (%rax)
    451e: 00 00                        	addb	%al, (%rax)
    4520: 10 00                        	adcb	%al, (%rax)
    4522: 00 00                        	addb	%al, (%rax)
    4524: fc                           	cld
    4525: 02 00                        	addb	(%rax), %al
    4527: 00 d8                        	addb	%bl, %al
    4529: db ff                        	<unknown>
    452b: ff 3e                        	<unknown>
    452d: 00 00                        	addb	%al, (%rax)
    452f: 00 00                        	addb	%al, (%rax)
    4531: 00 00                        	addb	%al, (%rax)
    4533: 00 10                        	addb	%dl, (%rax)
    4535: 00 00                        	addb	%al, (%rax)
    4537: 00 10                        	addb	%dl, (%rax)
    4539: 03 00                        	addl	(%rax), %eax
    453b: 00 04 dc                     	addb	%al, (%rsp,%rbx,8)
    453e: ff ff                        	<unknown>
    4540: 52                           	pushq	%rdx
    4541: 00 00                        	addb	%al, (%rax)
    4543: 00 00                        	addb	%al, (%rax)
    4545: 00 00                        	addb	%al, (%rax)
    4547: 00 44 00 00                  	addb	%al, (%rax,%rax)
    454b: 00 24 03                     	addb	%ah, (%rbx,%rax)
    454e: 00 00                        	addb	%al, (%rax)
    4550: 50                           	pushq	%rax
    4551: dc ff                        	fdivr	%st, %st(7)
    4553: ff fe                        	<unknown>
    4555: 02 00                        	addb	(%rax), %al
    4557: 00 00                        	addb	%al, (%rax)
    4559: 41 0e                        	<unknown>
    455b: 10 86 02 41 0e 18            	adcb	%al, 403587330(%rsi)
    4561: 83 03 42                     	addl	$66, (%rbx)
    4564: 0e                           	<unknown>
    4565: 20 8c 04 42 0e 28 8d         	andb	%cl, -1926754750(%rsp,%rax)
    456c: 05 42 0e 30 8e               	addl	$2385514050, %eax
    4571: 06                           	<unknown>
    4572: 42 0e                        	<unknown>
    4574: 38 8f 07 47 0e e0            	cmpb	%cl, -535935225(%rdi)
    457a: 01 03                        	addl	%eax, (%rbx)
    457c: d0 02                        	rolb	(%rdx)
    457e: 0c 04                        	orb	$4, %al
    4580: 08 44 cf 44                  	orb	%al, 68(%rdi,%rcx,8)
    4584: ce                           	<unknown>
    4585: 44 cd 44                     	int	$68
    4588: cc                           	int3
    4589: 44 c3                        	retq
    458b: 44 c6 43 0d 07               	movb	$7, 13(%rbx)
    4590: 54                           	pushq	%rsp
    4591: 00 00                        	addb	%al, (%rax)
    4593: 00 6c 03 00                  	addb	%ch, (%rbx,%rax)
    4597: 00 08                        	addb	%cl, (%rax)
    4599: df ff                        	<unknown>
    459b: ff 2d 07 00 00 00            	ljmpl	*7(%rip)
    45a1: 41 0e                        	<unknown>
    45a3: 10 86 02 41 0e 18            	adcb	%al, 403587330(%rsi)
    45a9: 83 03 42                     	addl	$66, (%rbx)
    45ac: 0e                           	<unknown>
    45ad: 20 8c 04 42 0e 28 8d         	andb	%cl, -1926754750(%rsp,%rax)
    45b4: 05 42 0e 30 8e               	addl	$2385514050, %eax
    45b9: 06                           	<unknown>
    45ba: 42 0e                        	<unknown>
    45bc: 38 8f 07 47 0e 80            	cmpb	%cl, -2146547961(%rdi)
    45c2: 05 03 0e 03 0e               	addl	$235081219, %eax
    45c7: e0 01                        	loopne	1
    45c9: 45 0e                        	<unknown>
    45cb: 80 05 03 ec 03 0c 04         	addb	$4, 201583619(%rip)
    45d2: 08 44 cf 44                  	orb	%al, 68(%rdi,%rcx,8)
    45d6: ce                           	<unknown>
    45d7: 44 cd 44                     	int	$68
    45da: cc                           	int3
    45db: 44 c3                        	retq
    45dd: 44 c6 43 0d 07               	movb	$7, 13(%rbx)
    45e2: 00 00                        	addb	%al, (%rax)
    45e4: 00 00                        	addb	%al, (%rax)
    45e6: 00 00                        	addb	%al, (%rax)
    45e8: 48 00 00                     	addb	%al, (%rax)
    45eb: 00 c4                        	addb	%al, %ah
    45ed: 03 00                        	addl	(%rax), %eax
    45ef: 00 e0                        	addb	%ah, %al
    45f1: e5 ff                        	inl	$255, %eax
    45f3: ff ae 02 00 00 00            	ljmpl	*2(%rsi)
    45f9: 42 0e                        	<unknown>
    45fb: 10 8f 02 45 0e 18            	adcb	%cl, 403588354(%rdi)
    4601: 8e 03                        	movw	(%rbx), %es
    4603: 42 0e                        	<unknown>
    4605: 20 8d 04 42 0e 28            	andb	%cl, 672023044(%rbp)
    460b: 8c 05 41 0e 30 86            	movw	%es, -2043670975(%rip)
    4611: 06                           	<unknown>
    4612: 46 0e                        	<unknown>
    4614: 38 83 07 47 0e a0            	cmpb	%al, -1609677049(%rbx)
    461a: 02 03                        	addb	(%rbx), %al
    461c: 8a 02                        	movb	(%rdx), %al
    461e: 0e                           	<unknown>
    461f: 38 41 0e                     	cmpb	%al, 14(%rcx)
    4622: 30 41 0e                     	xorb	%al, 14(%rcx)
    4625: 28 42 0e                     	subb	%al, 14(%rdx)
    4628: 20 42 0e                     	andb	%al, 14(%rdx)
    462b: 18 42 0e                     	sbbb	%al, 14(%rdx)
    462e: 10 42 0e                     	adcb	%al, 14(%rdx)
    4631: 08 00                        	orb	%al, (%rax)
    4633: 00 10                        	addb	%dl, (%rax)
    4635: 00 00                        	addb	%al, (%rax)
    4637: 00 10                        	addb	%dl, (%rax)
    4639: 04 00                        	addb	$0, %al
    463b: 00 44 e8 ff                  	addb	%al, -1(%rax,%rbp,8)
    463f: ff 2d 00 00 00 00            	ljmpl	*(%rip)
    4645: 00 00                        	addb	%al, (%rax)
    4647: 00 10                        	addb	%dl, (%rax)
    4649: 00 00                        	addb	%al, (%rax)
    464b: 00 24 04                     	addb	%ah, (%rsp,%rax)
    464e: 00 00                        	addb	%al, (%rax)
    4650: 60                           	<unknown>
    4651: e8 ff ff d2 00               	callq	13828095 <_end+0xd2e5e5>
    4656: 00 00                        	addb	%al, (%rax)
    4658: 00 00                        	addb	%al, (%rax)
    465a: 00 00                        	addb	%al, (%rax)
    465c: 10 00                        	adcb	%al, (%rax)
    465e: 00 00                        	addb	%al, (%rax)
    4660: 38 04 00                     	cmpb	%al, (%rax,%rax)
    4663: 00 2c e9                     	addb	%ch, (%rcx,%rbp,8)
    4666: ff ff                        	<unknown>
    4668: 27                           	<unknown>
    4669: 00 00                        	addb	%al, (%rax)
    466b: 00 00                        	addb	%al, (%rax)
    466d: 00 00                        	addb	%al, (%rax)
    466f: 00 10                        	addb	%dl, (%rax)
    4671: 00 00                        	addb	%al, (%rax)
    4673: 00 4c 04 00                  	addb	%cl, (%rsp,%rax)
    4677: 00 48 e9                     	addb	%cl, -23(%rax)
    467a: ff ff                        	<unknown>
    467c: e1 00                        	loope	0
    467e: 00 00                        	addb	%al, (%rax)
    4680: 00 00                        	addb	%al, (%rax)
    4682: 00 00                        	addb	%al, (%rax)
    4684: 10 00                        	adcb	%al, (%rax)
    4686: 00 00                        	addb	%al, (%rax)
    4688: 60                           	<unknown>
    4689: 04 00                        	addb	$0, %al
    468b: 00 24 ea                     	addb	%ah, (%rdx,%rbp,8)
    468e: ff ff                        	<unknown>
    4690: 24 00                        	andb	$0, %al
    4692: 00 00                        	addb	%al, (%rax)
    4694: 00 00                        	addb	%al, (%rax)
    4696: 00 00                        	addb	%al, (%rax)
    4698: 14 00                        	adcb	$0, %al
    469a: 00 00                        	addb	%al, (%rax)
    469c: 74 04                        	je	4 <.eh_frame+0x4aa>
    469e: 00 00                        	addb	%al, (%rax)
    46a0: 40 ea                        	<unknown>
    46a2: ff ff                        	<unknown>
    46a4: 97                           	xchgl	%edi, %eax
		...
    46ad: 00 00                        	addb	%al, (%rax)
    46af: 00 44 00 00                  	addb	%al, (%rax,%rax)
    46b3: 00 8c 04 00 00 c8 ea         	addb	%cl, -355991552(%rsp,%rax)
    46ba: ff ff                        	<unknown>
    46bc: 5d                           	popq	%rbp
    46bd: 00 00                        	addb	%al, (%rax)
    46bf: 00 00                        	addb	%al, (%rax)
    46c1: 42 0e                        	<unknown>
    46c3: 10 8f 02 45 0e 18            	adcb	%cl, 403588354(%rdi)
    46c9: 8e 03                        	movw	(%rbx), %es
    46cb: 45 0e                        	<unknown>
    46cd: 20 8d 04 45 0e 28            	andb	%cl, 672023812(%rbp)
    46d3: 8c 05 48 0e 30 86            	movw	%es, -2043670968(%rip)
    46d9: 06                           	<unknown>
    46da: 48 0e                        	<unknown>
    46dc: 38 83 07 47 0e 40            	cmpb	%al, 1074677511(%rbx)
    46e2: 6a 0e                        	pushq	$14
    46e4: 38 41 0e                     	cmpb	%al, 14(%rcx)
    46e7: 30 41 0e                     	xorb	%al, 14(%rcx)
    46ea: 28 42 0e                     	subb	%al, 14(%rdx)
    46ed: 20 42 0e                     	andb	%al, 14(%rdx)
    46f0: 18 42 0e                     	sbbb	%al, 14(%rdx)
    46f3: 10 42 0e                     	adcb	%al, 14(%rdx)
    46f6: 08 00                        	orb	%al, (%rax)
    46f8: 10 00                        	adcb	%al, (%rax)
    46fa: 00 00                        	addb	%al, (%rax)
    46fc: d4                           	<unknown>
    46fd: 04 00                        	addb	$0, %al
    46ff: 00 e0                        	addb	%ah, %al
    4701: ea                           	<unknown>
    4702: ff ff                        	<unknown>
    4704: 01 00                        	addl	%eax, (%rax)
    4706: 00 00                        	addb	%al, (%rax)
    4708: 00 00                        	addb	%al, (%rax)
    470a: 00 00                        	addb	%al, (%rax)

000000000000470c __FRAME_END__:
    470c: 00 00                        	addb	%al, (%rax)
    470e: 00 00                        	addb	%al, (%rax)

Disassembly of section .init_array:

0000000000005de8 __init_array_start:
    5de8: f0                           	lock
    5de9: 12 00                        	adcb	(%rax), %al
    5deb: 00 00                        	addb	%al, (%rax)
    5ded: 00 00                        	addb	%al, (%rax)
    5def: 00                           	<unknown>

Disassembly of section .fini_array:

0000000000005df0 __do_global_dtors_aux_fini_array_entry:
    5df0: b0 12                        	movb	$18, %al
    5df2: 00 00                        	addb	%al, (%rax)
    5df4: 00 00                        	addb	%al, (%rax)
    5df6: 00 00                        	addb	%al, (%rax)

Disassembly of section .dynamic:

0000000000005df8 _DYNAMIC:
    5df8: 01 00                        	addl	%eax, (%rax)
    5dfa: 00 00                        	addb	%al, (%rax)
    5dfc: 00 00                        	addb	%al, (%rax)
    5dfe: 00 00                        	addb	%al, (%rax)
    5e00: 01 00                        	addl	%eax, (%rax)
    5e02: 00 00                        	addb	%al, (%rax)
    5e04: 00 00                        	addb	%al, (%rax)
    5e06: 00 00                        	addb	%al, (%rax)
    5e08: 0c 00                        	orb	$0, %al
    5e0a: 00 00                        	addb	%al, (%rax)
    5e0c: 00 00                        	addb	%al, (%rax)
    5e0e: 00 00                        	addb	%al, (%rax)
    5e10: 00 10                        	addb	%dl, (%rax)
    5e12: 00 00                        	addb	%al, (%rax)
    5e14: 00 00                        	addb	%al, (%rax)
    5e16: 00 00                        	addb	%al, (%rax)
    5e18: 0d 00 00 00 00               	orl	$0, %eax
    5e1d: 00 00                        	addb	%al, (%rax)
    5e1f: 00 e4                        	addb	%ah, %ah
    5e21: 31 00                        	xorl	%eax, (%rax)
    5e23: 00 00                        	addb	%al, (%rax)
    5e25: 00 00                        	addb	%al, (%rax)
    5e27: 00 19                        	addb	%bl, (%rcx)
    5e29: 00 00                        	addb	%al, (%rax)
    5e2b: 00 00                        	addb	%al, (%rax)
    5e2d: 00 00                        	addb	%al, (%rax)
    5e2f: 00 e8                        	addb	%ch, %al
    5e31: 5d                           	popq	%rbp
    5e32: 00 00                        	addb	%al, (%rax)
    5e34: 00 00                        	addb	%al, (%rax)
    5e36: 00 00                        	addb	%al, (%rax)
    5e38: 1b 00                        	sbbl	(%rax), %eax
    5e3a: 00 00                        	addb	%al, (%rax)
    5e3c: 00 00                        	addb	%al, (%rax)
    5e3e: 00 00                        	addb	%al, (%rax)
    5e40: 08 00                        	orb	%al, (%rax)
    5e42: 00 00                        	addb	%al, (%rax)
    5e44: 00 00                        	addb	%al, (%rax)
    5e46: 00 00                        	addb	%al, (%rax)
    5e48: 1a 00                        	sbbb	(%rax), %al
    5e4a: 00 00                        	addb	%al, (%rax)
    5e4c: 00 00                        	addb	%al, (%rax)
    5e4e: 00 00                        	addb	%al, (%rax)
    5e50: f0                           	lock
    5e51: 5d                           	popq	%rbp
    5e52: 00 00                        	addb	%al, (%rax)
    5e54: 00 00                        	addb	%al, (%rax)
    5e56: 00 00                        	addb	%al, (%rax)
    5e58: 1c 00                        	sbbb	$0, %al
    5e5a: 00 00                        	addb	%al, (%rax)
    5e5c: 00 00                        	addb	%al, (%rax)
    5e5e: 00 00                        	addb	%al, (%rax)
    5e60: 08 00                        	orb	%al, (%rax)
    5e62: 00 00                        	addb	%al, (%rax)
    5e64: 00 00                        	addb	%al, (%rax)
    5e66: 00 00                        	addb	%al, (%rax)
    5e68: f5                           	cmc
    5e69: fe ff                        	<unknown>
    5e6b: 6f                           	outsl	(%rsi), %dx
    5e6c: 00 00                        	addb	%al, (%rax)
    5e6e: 00 00                        	addb	%al, (%rax)
    5e70: 08 03                        	orb	%al, (%rbx)
    5e72: 00 00                        	addb	%al, (%rax)
    5e74: 00 00                        	addb	%al, (%rax)
    5e76: 00 00                        	addb	%al, (%rax)
    5e78: 05 00 00 00 00               	addl	$0, %eax
    5e7d: 00 00                        	addb	%al, (%rax)
    5e7f: 00 50 04                     	addb	%dl, 4(%rax)
    5e82: 00 00                        	addb	%al, (%rax)
    5e84: 00 00                        	addb	%al, (%rax)
    5e86: 00 00                        	addb	%al, (%rax)
    5e88: 06                           	<unknown>
    5e89: 00 00                        	addb	%al, (%rax)
    5e8b: 00 00                        	addb	%al, (%rax)
    5e8d: 00 00                        	addb	%al, (%rax)
    5e8f: 00 30                        	addb	%dh, (%rax)
    5e91: 03 00                        	addl	(%rax), %eax
    5e93: 00 00                        	addb	%al, (%rax)
    5e95: 00 00                        	addb	%al, (%rax)
    5e97: 00 0a                        	addb	%cl, (%rdx)
    5e99: 00 00                        	addb	%al, (%rax)
    5e9b: 00 00                        	addb	%al, (%rax)
    5e9d: 00 00                        	addb	%al, (%rax)
    5e9f: 00 a6 00 00 00 00            	addb	%ah, (%rsi)
    5ea5: 00 00                        	addb	%al, (%rax)
    5ea7: 00 0b                        	addb	%cl, (%rbx)
    5ea9: 00 00                        	addb	%al, (%rax)
    5eab: 00 00                        	addb	%al, (%rax)
    5ead: 00 00                        	addb	%al, (%rax)
    5eaf: 00 18                        	addb	%bl, (%rax)
    5eb1: 00 00                        	addb	%al, (%rax)
    5eb3: 00 00                        	addb	%al, (%rax)
    5eb5: 00 00                        	addb	%al, (%rax)
    5eb7: 00 15 00 00 00 00            	addb	%dl, (%rip)
		...
    5ec5: 00 00                        	addb	%al, (%rax)
    5ec7: 00 03                        	addb	%al, (%rbx)
		...
    5ed1: 60                           	<unknown>
    5ed2: 00 00                        	addb	%al, (%rax)
    5ed4: 00 00                        	addb	%al, (%rax)
    5ed6: 00 00                        	addb	%al, (%rax)
    5ed8: 02 00                        	addb	(%rax), %al
    5eda: 00 00                        	addb	%al, (%rax)
    5edc: 00 00                        	addb	%al, (%rax)
    5ede: 00 00                        	addb	%al, (%rax)
    5ee0: 78 00                        	js	0 <_DYNAMIC+0xea>
    5ee2: 00 00                        	addb	%al, (%rax)
    5ee4: 00 00                        	addb	%al, (%rax)
    5ee6: 00 00                        	addb	%al, (%rax)
    5ee8: 14 00                        	adcb	$0, %al
    5eea: 00 00                        	addb	%al, (%rax)
    5eec: 00 00                        	addb	%al, (%rax)
    5eee: 00 00                        	addb	%al, (%rax)
    5ef0: 07                           	<unknown>
    5ef1: 00 00                        	addb	%al, (%rax)
    5ef3: 00 00                        	addb	%al, (%rax)
    5ef5: 00 00                        	addb	%al, (%rax)
    5ef7: 00 17                        	addb	%dl, (%rdi)
    5ef9: 00 00                        	addb	%al, (%rax)
    5efb: 00 00                        	addb	%al, (%rax)
    5efd: 00 00                        	addb	%al, (%rax)
    5eff: 00 08                        	addb	%cl, (%rax)
    5f01: 06                           	<unknown>
    5f02: 00 00                        	addb	%al, (%rax)
    5f04: 00 00                        	addb	%al, (%rax)
    5f06: 00 00                        	addb	%al, (%rax)
    5f08: 07                           	<unknown>
    5f09: 00 00                        	addb	%al, (%rax)
    5f0b: 00 00                        	addb	%al, (%rax)
    5f0d: 00 00                        	addb	%al, (%rax)
    5f0f: 00 30                        	addb	%dh, (%rax)
    5f11: 05 00 00 00 00               	addl	$0, %eax
    5f16: 00 00                        	addb	%al, (%rax)
    5f18: 08 00                        	orb	%al, (%rax)
    5f1a: 00 00                        	addb	%al, (%rax)
    5f1c: 00 00                        	addb	%al, (%rax)
    5f1e: 00 00                        	addb	%al, (%rax)
    5f20: d8 00                        	fadds	(%rax)
    5f22: 00 00                        	addb	%al, (%rax)
    5f24: 00 00                        	addb	%al, (%rax)
    5f26: 00 00                        	addb	%al, (%rax)
    5f28: 09 00                        	orl	%eax, (%rax)
    5f2a: 00 00                        	addb	%al, (%rax)
    5f2c: 00 00                        	addb	%al, (%rax)
    5f2e: 00 00                        	addb	%al, (%rax)
    5f30: 18 00                        	sbbb	%al, (%rax)
    5f32: 00 00                        	addb	%al, (%rax)
    5f34: 00 00                        	addb	%al, (%rax)
    5f36: 00 00                        	addb	%al, (%rax)
    5f38: fb                           	sti
    5f39: ff ff                        	<unknown>
    5f3b: 6f                           	outsl	(%rsi), %dx
    5f3c: 00 00                        	addb	%al, (%rax)
    5f3e: 00 00                        	addb	%al, (%rax)
    5f40: 00 00                        	addb	%al, (%rax)
    5f42: 00 08                        	addb	%cl, (%rax)
    5f44: 00 00                        	addb	%al, (%rax)
    5f46: 00 00                        	addb	%al, (%rax)
    5f48: fe ff                        	<unknown>
    5f4a: ff 6f 00                     	ljmpl	*(%rdi)
    5f4d: 00 00                        	addb	%al, (%rax)
    5f4f: 00 10                        	addb	%dl, (%rax)
    5f51: 05 00 00 00 00               	addl	$0, %eax
    5f56: 00 00                        	addb	%al, (%rax)
    5f58: ff ff                        	<unknown>
    5f5a: ff 6f 00                     	ljmpl	*(%rdi)
    5f5d: 00 00                        	addb	%al, (%rax)
    5f5f: 00 01                        	addb	%al, (%rcx)
    5f61: 00 00                        	addb	%al, (%rax)
    5f63: 00 00                        	addb	%al, (%rax)
    5f65: 00 00                        	addb	%al, (%rax)
    5f67: 00 f0                        	addb	%dh, %al
    5f69: ff ff                        	<unknown>
    5f6b: 6f                           	outsl	(%rsi), %dx
    5f6c: 00 00                        	addb	%al, (%rax)
    5f6e: 00 00                        	addb	%al, (%rax)
    5f70: f6 04 00 00                  	testb	$0, (%rax,%rax)
    5f74: 00 00                        	addb	%al, (%rax)
    5f76: 00 00                        	addb	%al, (%rax)
    5f78: f9                           	stc
    5f79: ff ff                        	<unknown>
    5f7b: 6f                           	outsl	(%rsi), %dx
    5f7c: 00 00                        	addb	%al, (%rax)
    5f7e: 00 00                        	addb	%al, (%rax)
    5f80: 03 00                        	addl	(%rax), %eax
		...
    5fd6: 00 00                        	addb	%al, (%rax)

Disassembly of section .got:

0000000000005fd8 .got:
		...

Disassembly of section .got.plt:

0000000000006000 _GLOBAL_OFFSET_TABLE_:
    6000: f8                           	clc
    6001: 5d                           	popq	%rbp
		...
    6016: 00 00                        	addb	%al, (%rax)
    6018: 36 10 00                     	adcb	%al, %ss:(%rax)
    601b: 00 00                        	addb	%al, (%rax)
    601d: 00 00                        	addb	%al, (%rax)
    601f: 00 46 10                     	addb	%al, 16(%rsi)
    6022: 00 00                        	addb	%al, (%rax)
    6024: 00 00                        	addb	%al, (%rax)
    6026: 00 00                        	addb	%al, (%rax)
    6028: 56                           	pushq	%rsi
    6029: 10 00                        	adcb	%al, (%rax)
    602b: 00 00                        	addb	%al, (%rax)
    602d: 00 00                        	addb	%al, (%rax)
    602f: 00 66 10                     	addb	%ah, 16(%rsi)
    6032: 00 00                        	addb	%al, (%rax)
    6034: 00 00                        	addb	%al, (%rax)
    6036: 00 00                        	addb	%al, (%rax)
    6038: 76 10                        	jbe	16 <__dso_handle+0x2>
    603a: 00 00                        	addb	%al, (%rax)
    603c: 00 00                        	addb	%al, (%rax)
    603e: 00 00                        	addb	%al, (%rax)

Disassembly of section .data:

0000000000006040 data_start:
		...

0000000000006048 __dso_handle:
    6048: 48 60                        	<unknown>
    604a: 00 00                        	addb	%al, (%rax)
    604c: 00 00                        	addb	%al, (%rax)
    604e: 00 00                        	addb	%al, (%rax)

Disassembly of section .bss:

0000000000006060 stderr@@GLIBC_2.2.5:
...

0000000000006068 completed.7325:
...

Disassembly of section .comment:

0000000000000000 .comment:
       0: 47 43                        	<unknown>
       2: 43 3a 20                     	cmpb	(%r8), %spl
       5: 28 44 65 62                  	subb	%al, 98(%rbp,%riz,2)
       9: 69 61 6e 20 38 2e 33         	imull	$858667040, 110(%rcx), %esp
      10: 2e 30 2d 36 29 20 38         	xorb	%ch, %cs:941631798(%rip)
      17: 2e 33 2e                     	xorl	%cs:(%rsi), %ebp
      1a: 30 00                        	xorb	%al, (%rax)

Disassembly of section .symtab:

0000000000000000 .symtab:
		...
      1c: 03 00                        	addl	(%rax), %eax
      1e: 01 00                        	addl	%eax, (%rax)
      20: a8 02                        	testb	$2, %al
		...
      32: 00 00                        	addb	%al, (%rax)
      34: 03 00                        	addl	(%rax), %eax
      36: 02 00                        	addb	(%rax), %al
      38: c4 02 00 00                  	<unknown>
		...
      4c: 03 00                        	addl	(%rax), %eax
      4e: 03 00                        	addl	(%rax), %eax
      50: e4 02                        	inb	$2, %al
		...
      62: 00 00                        	addb	%al, (%rax)
      64: 03 00                        	addl	(%rax), %eax
      66: 04 00                        	addb	$0, %al
      68: 08 03                        	orb	%al, (%rbx)
		...
      7a: 00 00                        	addb	%al, (%rax)
      7c: 03 00                        	addl	(%rax), %eax
      7e: 05 00 30 03 00               	addl	$208896, %eax
		...
      93: 00 03                        	addb	%al, (%rbx)
      95: 00 06                        	addb	%al, (%rsi)
      97: 00 50 04                     	addb	%dl, 4(%rax)
		...
      aa: 00 00                        	addb	%al, (%rax)
      ac: 03 00                        	addl	(%rax), %eax
      ae: 07                           	<unknown>
      af: 00 f6                        	addb	%dh, %dh
      b1: 04 00                        	addb	$0, %al
		...
      c3: 00 03                        	addb	%al, (%rbx)
      c5: 00 08                        	addb	%cl, (%rax)
      c7: 00 10                        	addb	%dl, (%rax)
      c9: 05 00 00 00 00               	addl	$0, %eax
		...
      da: 00 00                        	addb	%al, (%rax)
      dc: 03 00                        	addl	(%rax), %eax
      de: 09 00                        	orl	%eax, (%rax)
      e0: 30 05 00 00 00 00            	xorb	%al, (%rip)
		...
      f2: 00 00                        	addb	%al, (%rax)
      f4: 03 00                        	addl	(%rax), %eax
      f6: 0a 00                        	orb	(%rax), %al
      f8: 08 06                        	orb	%al, (%rsi)
		...
     10a: 00 00                        	addb	%al, (%rax)
     10c: 03 00                        	addl	(%rax), %eax
     10e: 0b 00                        	orl	(%rax), %eax
     110: 00 10                        	addb	%dl, (%rax)
		...
     122: 00 00                        	addb	%al, (%rax)
     124: 03 00                        	addl	(%rax), %eax
     126: 0c 00                        	orb	$0, %al
     128: 20 10                        	andb	%dl, (%rax)
		...
     13a: 00 00                        	addb	%al, (%rax)
     13c: 03 00                        	addl	(%rax), %eax
     13e: 0d 00 80 10 00               	orl	$1081344, %eax
		...
     153: 00 03                        	addb	%al, (%rbx)
     155: 00 0e                        	addb	%cl, (%rsi)
     157: 00 c0                        	addb	%al, %al
     159: 10 00                        	adcb	%al, (%rax)
		...
     16b: 00 03                        	addb	%al, (%rbx)
     16d: 00 0f                        	addb	%cl, (%rdi)
     16f: 00 e4                        	addb	%ah, %ah
     171: 31 00                        	xorl	%eax, (%rax)
		...
     183: 00 03                        	addb	%al, (%rbx)
     185: 00 10                        	addb	%dl, (%rax)
     187: 00 00                        	addb	%al, (%rax)
     189: 40 00 00                     	addb	%al, (%rax)
		...
     19c: 03 00                        	addl	(%rax), %eax
     19e: 11 00                        	adcl	%eax, (%rax)
     1a0: e0 40                        	loopne	64
		...
     1b2: 00 00                        	addb	%al, (%rax)
     1b4: 03 00                        	addl	(%rax), %eax
     1b6: 12 00                        	adcb	(%rax), %al
     1b8: f8                           	clc
     1b9: 41 00 00                     	addb	%al, (%r8)
		...
     1cc: 03 00                        	addl	(%rax), %eax
     1ce: 13 00                        	adcl	(%rax), %eax
     1d0: e8 5d 00 00 00               	callq	93 <ladderjac.c+0x232>
		...
     1e1: 00 00                        	addb	%al, (%rax)
     1e3: 00 03                        	addb	%al, (%rbx)
     1e5: 00 14 00                     	addb	%dl, (%rax,%rax)
     1e8: f0                           	lock
     1e9: 5d                           	popq	%rbp
		...
     1fa: 00 00                        	addb	%al, (%rax)
     1fc: 03 00                        	addl	(%rax), %eax
     1fe: 15 00 f8 5d 00               	adcl	$6158336, %eax
		...
     213: 00 03                        	addb	%al, (%rbx)
     215: 00 16                        	addb	%dl, (%rsi)
     217: 00 d8                        	addb	%bl, %al
     219: 5f                           	popq	%rdi
		...
     22a: 00 00                        	addb	%al, (%rax)
     22c: 03 00                        	addl	(%rax), %eax
     22e: 17                           	<unknown>
     22f: 00 00                        	addb	%al, (%rax)
     231: 60                           	<unknown>
		...
     242: 00 00                        	addb	%al, (%rax)
     244: 03 00                        	addl	(%rax), %eax
     246: 18 00                        	sbbb	%al, (%rax)
     248: 40 60                        	<unknown>
		...
     25a: 00 00                        	addb	%al, (%rax)
     25c: 03 00                        	addl	(%rax), %eax
     25e: 19 00                        	sbbl	%eax, (%rax)
     260: 60                           	<unknown>
     261: 60                           	<unknown>
		...
     272: 00 00                        	addb	%al, (%rax)
     274: 03 00                        	addl	(%rax), %eax
     276: 1a 00                        	sbbb	(%rax), %al
		...
     288: 01 00                        	addl	%eax, (%rax)
     28a: 00 00                        	addb	%al, (%rax)
     28c: 04 00                        	addb	$0, %al
     28e: f1                           	<unknown>
     28f: ff 00                        	incl	(%rax)
		...
     29d: 00 00                        	addb	%al, (%rax)
     29f: 00 0d 00 00 00 04            	addb	%cl, 67108864(%rip)
     2a5: 00 f1                        	addb	%dh, %cl
     2a7: ff 00                        	incl	(%rax)
		...
     2b5: 00 00                        	addb	%al, (%rax)
     2b7: 00 18                        	addb	%bl, (%rax)
     2b9: 00 00                        	addb	%al, (%rax)
     2bb: 00 02                        	addb	%al, (%rdx)
     2bd: 00 0e                        	addb	%cl, (%rsi)
     2bf: 00 40 12                     	addb	%al, 18(%rax)
		...
     2ce: 00 00                        	addb	%al, (%rax)
     2d0: 1a 00                        	sbbb	(%rax), %al
     2d2: 00 00                        	addb	%al, (%rax)
     2d4: 02 00                        	addb	(%rax), %al
     2d6: 0e                           	<unknown>
     2d7: 00 70 12                     	addb	%dh, 18(%rax)
		...
     2e6: 00 00                        	addb	%al, (%rax)
     2e8: 2d 00 00 00 02               	subl	$33554432, %eax
     2ed: 00 0e                        	addb	%cl, (%rsi)
     2ef: 00 b0 12 00 00 00            	addb	%dh, 18(%rax)
		...
     2fd: 00 00                        	addb	%al, (%rax)
     2ff: 00 43 00                     	addb	%al, (%rbx)
     302: 00 00                        	addb	%al, (%rax)
     304: 01 00                        	addl	%eax, (%rax)
     306: 19 00                        	sbbl	%eax, (%rax)
     308: 68 60 00 00 00               	pushq	$96
     30d: 00 00                        	addb	%al, (%rax)
     30f: 00 01                        	addb	%al, (%rcx)
     311: 00 00                        	addb	%al, (%rax)
     313: 00 00                        	addb	%al, (%rax)
     315: 00 00                        	addb	%al, (%rax)
     317: 00 52 00                     	addb	%dl, (%rdx)
     31a: 00 00                        	addb	%al, (%rax)
     31c: 01 00                        	addl	%eax, (%rax)
     31e: 14 00                        	adcb	$0, %al
     320: f0                           	lock
     321: 5d                           	popq	%rbp
		...
     32e: 00 00                        	addb	%al, (%rax)
     330: 79 00                        	jns	0 <.dynsym+0x2>
     332: 00 00                        	addb	%al, (%rax)
     334: 02 00                        	addb	(%rax), %al
     336: 0e                           	<unknown>
     337: 00 f0                        	addb	%dh, %al
     339: 12 00                        	adcb	(%rax), %al
		...
     347: 00 85 00 00 00 01            	addb	%al, 16777216(%rbp)
     34d: 00 13                        	addb	%dl, (%rbx)
     34f: 00 e8                        	addb	%ch, %al
     351: 5d                           	popq	%rbp
		...
     35e: 00 00                        	addb	%al, (%rax)
     360: a4                           	movsb	(%rsi), %es:(%rdi)
     361: 00 00                        	addb	%al, (%rax)
     363: 00 04 00                     	addb	%al, (%rax,%rax)
     366: f1                           	<unknown>
     367: ff 00                        	incl	(%rax)
		...
     375: 00 00                        	addb	%al, (%rax)
     377: 00 b4 00 00 00 02 00         	addb	%dh, 131072(%rax,%rax)
     37e: 0e                           	<unknown>
     37f: 00 e0                        	addb	%ah, %al
     381: 1a 00                        	sbbb	(%rax), %al
     383: 00 00                        	addb	%al, (%rax)
     385: 00 00                        	addb	%al, (%rax)
     387: 00 2d 02 00 00 00            	addb	%ch, 2(%rip)
     38d: 00 00                        	addb	%al, (%rax)
     38f: 00 cd                        	addb	%cl, %ch
     391: 00 00                        	addb	%al, (%rax)
     393: 00 02                        	addb	%al, (%rdx)
     395: 00 0e                        	addb	%cl, (%rsi)
     397: 00 80 1d 00 00 00            	addb	%al, 29(%rax)
     39d: 00 00                        	addb	%al, (%rax)
     39f: 00 a1 01 00 00 00            	addb	%ah, 1(%rcx)
     3a5: 00 00                        	addb	%al, (%rax)
     3a7: 00 e6                        	addb	%ah, %dh
     3a9: 00 00                        	addb	%al, (%rax)
     3ab: 00 02                        	addb	%al, (%rdx)
     3ad: 00 0e                        	addb	%cl, (%rsi)
     3af: 00 40 20                     	addb	%al, 32(%rax)
     3b2: 00 00                        	addb	%al, (%rax)
     3b4: 00 00                        	addb	%al, (%rax)
     3b6: 00 00                        	addb	%al, (%rax)
     3b8: 55                           	pushq	%rbp
     3b9: 00 00                        	addb	%al, (%rax)
     3bb: 00 00                        	addb	%al, (%rax)
     3bd: 00 00                        	addb	%al, (%rax)
     3bf: 00 fd                        	addb	%bh, %ch
     3c1: 00 00                        	addb	%al, (%rax)
     3c3: 00 02                        	addb	%al, (%rdx)
     3c5: 00 0e                        	addb	%cl, (%rsi)
     3c7: 00 a0 20 00 00 00            	addb	%ah, 32(%rax)
     3cd: 00 00                        	addb	%al, (%rax)
     3cf: 00 50 00                     	addb	%dl, (%rax)
     3d2: 00 00                        	addb	%al, (%rax)
     3d4: 00 00                        	addb	%al, (%rax)
     3d6: 00 00                        	addb	%al, (%rax)
     3d8: 16                           	<unknown>
     3d9: 01 00                        	addl	%eax, (%rax)
     3db: 00 02                        	addb	%al, (%rdx)
     3dd: 00 0e                        	addb	%cl, (%rsi)
     3df: 00 00                        	addb	%al, (%rax)
     3e1: 21 00                        	andl	%eax, (%rax)
     3e3: 00 00                        	addb	%al, (%rax)
     3e5: 00 00                        	addb	%al, (%rax)
     3e7: 00 3e                        	addb	%bh, (%rsi)
     3e9: 00 00                        	addb	%al, (%rax)
     3eb: 00 00                        	addb	%al, (%rax)
     3ed: 00 00                        	addb	%al, (%rax)
     3ef: 00 2a                        	addb	%ch, (%rdx)
     3f1: 01 00                        	addl	%eax, (%rax)
     3f3: 00 02                        	addb	%al, (%rdx)
     3f5: 00 0e                        	addb	%cl, (%rsi)
     3f7: 00 40 21                     	addb	%al, 33(%rax)
     3fa: 00 00                        	addb	%al, (%rax)
     3fc: 00 00                        	addb	%al, (%rax)
     3fe: 00 00                        	addb	%al, (%rax)
     400: 52                           	pushq	%rdx
     401: 00 00                        	addb	%al, (%rax)
     403: 00 00                        	addb	%al, (%rax)
     405: 00 00                        	addb	%al, (%rax)
     407: 00 43 01                     	addb	%al, 1(%rbx)
     40a: 00 00                        	addb	%al, (%rax)
     40c: 04 00                        	addb	$0, %al
     40e: f1                           	<unknown>
     40f: ff 00                        	incl	(%rax)
		...
     41d: 00 00                        	addb	%al, (%rax)
     41f: 00 0d 00 00 00 04            	addb	%cl, 67108864(%rip)
     425: 00 f1                        	addb	%dh, %cl
     427: ff 00                        	incl	(%rax)
		...
     435: 00 00                        	addb	%al, (%rax)
     437: 00 4c 01 00                  	addb	%cl, (%rcx,%rax)
     43b: 00 01                        	addb	%al, (%rcx)
     43d: 00 12                        	addb	%dl, (%rdx)
     43f: 00 0c 47                     	addb	%cl, (%rdi,%rax,2)
		...
     452: 00 00                        	addb	%al, (%rax)
     454: 04 00                        	addb	$0, %al
     456: f1                           	<unknown>
     457: ff 00                        	incl	(%rax)
		...
     465: 00 00                        	addb	%al, (%rax)
     467: 00 5a 01                     	addb	%bl, 1(%rdx)
     46a: 00 00                        	addb	%al, (%rax)
     46c: 00 00                        	addb	%al, (%rax)
     46e: 13 00                        	adcl	(%rax), %eax
     470: f0                           	lock
     471: 5d                           	popq	%rbp
		...
     47e: 00 00                        	addb	%al, (%rax)
     480: 6b 01 00                     	imull	$0, (%rcx), %eax
     483: 00 01                        	addb	%al, (%rcx)
     485: 00 15 00 f8 5d 00            	addb	%dl, 6158336(%rip)
		...
     497: 00 74 01 00                  	addb	%dh, (%rcx,%rax)
     49b: 00 00                        	addb	%al, (%rax)
     49d: 00 13                        	addb	%dl, (%rbx)
     49f: 00 e8                        	addb	%ch, %al
     4a1: 5d                           	popq	%rbp
		...
     4ae: 00 00                        	addb	%al, (%rax)
     4b0: 87 01                        	xchgl	%eax, (%rcx)
     4b2: 00 00                        	addb	%al, (%rax)
     4b4: 00 00                        	addb	%al, (%rax)
     4b6: 11 00                        	adcl	%eax, (%rax)
     4b8: e0 40                        	loopne	64
		...
     4c6: 00 00                        	addb	%al, (%rax)
     4c8: 9a                           	<unknown>
     4c9: 01 00                        	addl	%eax, (%rax)
     4cb: 00 01                        	addb	%al, (%rcx)
     4cd: 00 17                        	addb	%dl, (%rdi)
     4cf: 00 00                        	addb	%al, (%rax)
     4d1: 60                           	<unknown>
		...
     4de: 00 00                        	addb	%al, (%rax)
     4e0: 9d                           	popfq
     4e1: 03 00                        	addl	(%rax), %eax
     4e3: 00 02                        	addb	%al, (%rdx)
     4e5: 00 0b                        	addb	%cl, (%rbx)
     4e7: 00 00                        	addb	%al, (%rax)
     4e9: 10 00                        	adcb	%al, (%rax)
		...
     4f7: 00 b0 01 00 00 12            	addb	%dh, 301989889(%rax)
     4fd: 00 0e                        	addb	%cl, (%rsi)
     4ff: 00 e0                        	addb	%ah, %al
     501: 31 00                        	xorl	%eax, (%rax)
     503: 00 00                        	addb	%al, (%rax)
     505: 00 00                        	addb	%al, (%rax)
     507: 00 01                        	addb	%al, (%rcx)
     509: 00 00                        	addb	%al, (%rax)
     50b: 00 00                        	addb	%al, (%rax)
     50d: 00 00                        	addb	%al, (%rax)
     50f: 00 c0                        	addb	%al, %al
     511: 01 00                        	addl	%eax, (%rax)
     513: 00 12                        	addb	%dl, (%rdx)
     515: 00 0e                        	addb	%cl, (%rsi)
     517: 00 e0                        	addb	%ah, %al
     519: 30 00                        	xorb	%al, (%rax)
     51b: 00 00                        	addb	%al, (%rax)
     51d: 00 00                        	addb	%al, (%rax)
     51f: 00 97 00 00 00 00            	addb	%dl, (%rdi)
     525: 00 00                        	addb	%al, (%rax)
     527: 00 cb                        	addb	%cl, %bl
     529: 01 00                        	addl	%eax, (%rax)
     52b: 00 12                        	addb	%dl, (%rdx)
     52d: 00 0e                        	addb	%cl, (%rsi)
     52f: 00 b0 30 00 00 00            	addb	%dh, 48(%rax)
     535: 00 00                        	addb	%al, (%rax)
     537: 00 24 00                     	addb	%ah, (%rax,%rax)
     53a: 00 00                        	addb	%al, (%rax)
     53c: 00 00                        	addb	%al, (%rax)
     53e: 00 00                        	addb	%al, (%rax)
     540: da 01                        	fiaddl	(%rcx)
     542: 00 00                        	addb	%al, (%rax)
     544: 20 00                        	andb	%al, (%rax)
		...
     556: 00 00                        	addb	%al, (%rax)
     558: 3e 03 00                     	addl	%ds:(%rax), %eax
     55b: 00 20                        	addb	%ah, (%rax)
     55d: 00 18                        	addb	%bl, (%rax)
     55f: 00 40 60                     	addb	%al, 96(%rax)
		...
     56e: 00 00                        	addb	%al, (%rax)
     570: f6 01 00                     	testb	$0, (%rcx)
     573: 00 12                        	addb	%dl, (%rdx)
     575: 00 0e                        	addb	%cl, (%rsi)
     577: 00 e0                        	addb	%ah, %al
     579: 19 00                        	sbbl	%eax, (%rax)
     57b: 00 00                        	addb	%al, (%rax)
     57d: 00 00                        	addb	%al, (%rax)
     57f: 00 7a 00                     	addb	%bh, (%rdx)
     582: 00 00                        	addb	%al, (%rax)
     584: 00 00                        	addb	%al, (%rax)
     586: 00 00                        	addb	%al, (%rax)
     588: 07                           	<unknown>
     589: 02 00                        	addb	(%rax), %al
     58b: 00 12                        	addb	%dl, (%rdx)
     58d: 00 0e                        	addb	%cl, (%rsi)
     58f: 00 c0                        	addb	%al, %al
     591: 2f                           	<unknown>
     592: 00 00                        	addb	%al, (%rax)
     594: 00 00                        	addb	%al, (%rax)
     596: 00 00                        	addb	%al, (%rax)
     598: e1 00                        	loope	0
     59a: 00 00                        	addb	%al, (%rax)
     59c: 00 00                        	addb	%al, (%rax)
     59e: 00 00                        	addb	%al, (%rax)
     5a0: 1b 02                        	sbbl	(%rdx), %eax
     5a2: 00 00                        	addb	%al, (%rax)
     5a4: 12 00                        	adcb	(%rax), %al
     5a6: 0e                           	<unknown>
     5a7: 00 20                        	addb	%ah, (%rax)
     5a9: 1d 00 00 00 00               	sbbl	$0, %eax
     5ae: 00 00                        	addb	%al, (%rax)
     5b0: 42 00 00                     	addb	%al, (%rax)
     5b3: 00 00                        	addb	%al, (%rax)
     5b5: 00 00                        	addb	%al, (%rax)
     5b7: 00 31                        	addb	%dh, (%rcx)
     5b9: 02 00                        	addb	(%rax), %al
     5bb: 00 12                        	addb	%dl, (%rdx)
     5bd: 00 0e                        	addb	%cl, (%rsi)
     5bf: 00 a0 24 00 00 00            	addb	%ah, 36(%rax)
     5c5: 00 00                        	addb	%al, (%rax)
     5c7: 00 2d 07 00 00 00            	addb	%ch, 7(%rip)
     5cd: 00 00                        	addb	%al, (%rax)
     5cf: 00 48 02                     	addb	%cl, 2(%rax)
     5d2: 00 00                        	addb	%al, (%rax)
     5d4: 12 00                        	adcb	(%rax), %al
     5d6: 0e                           	<unknown>
     5d7: 00 40 1f                     	addb	%al, 31(%rax)
     5da: 00 00                        	addb	%al, (%rax)
     5dc: 00 00                        	addb	%al, (%rax)
     5de: 00 00                        	addb	%al, (%rax)
     5e0: ee                           	outb	%al, %dx
     5e1: 00 00                        	addb	%al, (%rax)
     5e3: 00 00                        	addb	%al, (%rax)
     5e5: 00 00                        	addb	%al, (%rax)
     5e7: 00 5f 02                     	addb	%bl, 2(%rdi)
     5ea: 00 00                        	addb	%al, (%rax)
     5ec: 11 00                        	adcl	%eax, (%rax)
     5ee: 10 00                        	adcb	%al, (%rax)
     5f0: 80 40 00 00                  	addb	$0, (%rax)
     5f4: 00 00                        	addb	%al, (%rax)
     5f6: 00 00                        	addb	%al, (%rax)
     5f8: 20 00                        	andb	%al, (%rax)
     5fa: 00 00                        	addb	%al, (%rax)
     5fc: 00 00                        	addb	%al, (%rax)
     5fe: 00 00                        	addb	%al, (%rax)
     600: 66 02 00                     	addb	(%rax), %al
     603: 00 10                        	addb	%dl, (%rax)
     605: 00 18                        	addb	%bl, (%rax)
     607: 00 50 60                     	addb	%dl, 96(%rax)
		...
     616: 00 00                        	addb	%al, (%rax)
     618: 6d                           	insl	%dx, %es:(%rdi)
     619: 02 00                        	addb	(%rax), %al
     61b: 00 12                        	addb	%dl, (%rdx)
		...
     62d: 00 00                        	addb	%al, (%rax)
     62f: 00 ba 01 00 00 12            	addb	%bh, 301989889(%rdx)
     635: 02 0f                        	addb	(%rdi), %cl
     637: 00 e4                        	addb	%ah, %ah
     639: 31 00                        	xorl	%eax, (%rax)
		...
     647: 00 81 02 00 00 12            	addb	%al, 301989890(%rcx)
     64d: 00 0e                        	addb	%cl, (%rsi)
     64f: 00 90 2f 00 00 00            	addb	%dl, 47(%rax)
     655: 00 00                        	addb	%al, (%rax)
     657: 00 27                        	addb	%ah, (%rdi)
     659: 00 00                        	addb	%al, (%rax)
     65b: 00 00                        	addb	%al, (%rax)
     65d: 00 00                        	addb	%al, (%rax)
     65f: 00 8f 02 00 00 12            	addb	%cl, 301989890(%rdi)
     665: 00 0e                        	addb	%cl, (%rsi)
     667: 00 80 2e 00 00 00            	addb	%al, 46(%rax)
     66d: 00 00                        	addb	%al, (%rax)
     66f: 00 2d 00 00 00 00            	addb	%ch, (%rip)
     675: 00 00                        	addb	%al, (%rax)
     677: 00 96 02 00 00 12            	addb	%dl, 301989890(%rsi)
     67d: 00 0e                        	addb	%cl, (%rsi)
     67f: 00 00                        	addb	%al, (%rax)
     681: 18 00                        	sbbb	%al, (%rax)
     683: 00 00                        	addb	%al, (%rax)
     685: 00 00                        	addb	%al, (%rax)
     687: 00 c7                        	addb	%al, %bh
     689: 00 00                        	addb	%al, (%rax)
     68b: 00 00                        	addb	%al, (%rax)
     68d: 00 00                        	addb	%al, (%rax)
     68f: 00 ac 02 00 00 12 00         	addb	%ch, 1179648(%rdx,%rax)
     696: 0e                           	<unknown>
     697: 00 d0                        	addb	%dl, %al
     699: 2b 00                        	subl	(%rax), %eax
     69b: 00 00                        	addb	%al, (%rax)
     69d: 00 00                        	addb	%al, (%rax)
     69f: 00 ae 02 00 00 00            	addb	%ch, 2(%rsi)
     6a5: 00 00                        	addb	%al, (%rax)
     6a7: 00 c5                        	addb	%al, %ch
     6a9: 02 00                        	addb	(%rax), %al
     6ab: 00 12                        	addb	%dl, (%rdx)
     6ad: 00 0e                        	addb	%cl, (%rsi)
     6af: 00 40 17                     	addb	%al, 23(%rax)
     6b2: 00 00                        	addb	%al, (%rax)
     6b4: 00 00                        	addb	%al, (%rax)
     6b6: 00 00                        	addb	%al, (%rax)
     6b8: a9 00 00 00 00               	testl	$0, %eax
     6bd: 00 00                        	addb	%al, (%rax)
     6bf: 00 db                        	addb	%bl, %bl
     6c1: 02 00                        	addb	(%rax), %al
     6c3: 00 12                        	addb	%dl, (%rdx)
		...
     6d5: 00 00                        	addb	%al, (%rax)
     6d7: 00 ee                        	addb	%ch, %dh
     6d9: 02 00                        	addb	(%rax), %al
     6db: 00 12                        	addb	%dl, (%rdx)
		...
     6ed: 00 00                        	addb	%al, (%rax)
     6ef: 00 0d 03 00 00 12            	addb	%cl, 301989891(%rip)
     6f5: 00 0e                        	addb	%cl, (%rsi)
     6f7: 00 80 1a 00 00 00            	addb	%al, 26(%rax)
     6fd: 00 00                        	addb	%al, (%rax)
     6ff: 00 48 00                     	addb	%cl, (%rax)
     702: 00 00                        	addb	%al, (%rax)
     704: 00 00                        	addb	%al, (%rax)
     706: 00 00                        	addb	%al, (%rax)
     708: 23 03                        	andl	(%rbx), %eax
     70a: 00 00                        	addb	%al, (%rax)
     70c: 12 00                        	adcb	(%rax), %al
     70e: 0e                           	<unknown>
     70f: 00 b0 2e 00 00 00            	addb	%dh, 46(%rax)
     715: 00 00                        	addb	%al, (%rax)
     717: 00 d2                        	addb	%dl, %dl
     719: 00 00                        	addb	%al, (%rax)
     71b: 00 00                        	addb	%al, (%rax)
     71d: 00 00                        	addb	%al, (%rax)
     71f: 00 3c 03                     	addb	%bh, (%rbx,%rax)
     722: 00 00                        	addb	%al, (%rax)
     724: 10 00                        	adcb	%al, (%rax)
     726: 18 00                        	sbbb	%al, (%rax)
     728: 40 60                        	<unknown>
		...
     736: 00 00                        	addb	%al, (%rax)
     738: 49 03 00                     	addq	(%r8), %rax
     73b: 00 11                        	addb	%dl, (%rcx)
     73d: 00 10                        	addb	%dl, (%rax)
     73f: 00 40 40                     	addb	%al, 64(%rax)
     742: 00 00                        	addb	%al, (%rax)
     744: 00 00                        	addb	%al, (%rax)
     746: 00 00                        	addb	%al, (%rax)
     748: 21 00                        	andl	%eax, (%rax)
     74a: 00 00                        	addb	%al, (%rax)
     74c: 00 00                        	addb	%al, (%rax)
     74e: 00 00                        	addb	%al, (%rax)
     750: 4f 03 00                     	addq	(%r8), %r8
     753: 00 12                        	addb	%dl, (%rdx)
		...
     765: 00 00                        	addb	%al, (%rax)
     767: 00 64 03 00                  	addb	%ah, (%rbx,%rax)
     76b: 00 20                        	addb	%ah, (%rax)
		...
     77d: 00 00                        	addb	%al, (%rax)
     77f: 00 73 03                     	addb	%dh, 3(%rbx)
     782: 00 00                        	addb	%al, (%rax)
     784: 11 02                        	adcl	%eax, (%rdx)
     786: 18 00                        	sbbb	%al, (%rax)
     788: 48 60                        	<unknown>
		...
     796: 00 00                        	addb	%al, (%rax)
     798: 80 03 00                     	addb	$0, (%rbx)
     79b: 00 11                        	addb	%dl, (%rcx)
     79d: 00 10                        	addb	%dl, (%rax)
     79f: 00 00                        	addb	%al, (%rax)
     7a1: 40 00 00                     	addb	%al, (%rax)
     7a4: 00 00                        	addb	%al, (%rax)
     7a6: 00 00                        	addb	%al, (%rax)
     7a8: 04 00                        	addb	$0, %al
     7aa: 00 00                        	addb	%al, (%rax)
     7ac: 00 00                        	addb	%al, (%rax)
     7ae: 00 00                        	addb	%al, (%rax)
     7b0: 8f 03                        	popq	(%rbx)
     7b2: 00 00                        	addb	%al, (%rax)
     7b4: 11 00                        	adcl	%eax, (%rax)
     7b6: 10 00                        	adcb	%al, (%rax)
     7b8: c0 40 00 00                  	rolb	$0, (%rax)
     7bc: 00 00                        	addb	%al, (%rax)
     7be: 00 00                        	addb	%al, (%rax)
     7c0: 20 00                        	andb	%al, (%rax)
     7c2: 00 00                        	addb	%al, (%rax)
     7c4: 00 00                        	addb	%al, (%rax)
     7c6: 00 00                        	addb	%al, (%rax)
     7c8: 93                           	xchgl	%ebx, %eax
     7c9: 03 00                        	addl	(%rax), %eax
     7cb: 00 12                        	addb	%dl, (%rdx)
     7cd: 00 0e                        	addb	%cl, (%rsi)
     7cf: 00 80 31 00 00 00            	addb	%al, 49(%rax)
     7d5: 00 00                        	addb	%al, (%rax)
     7d7: 00 5d 00                     	addb	%bl, (%rbp)
     7da: 00 00                        	addb	%al, (%rax)
     7dc: 00 00                        	addb	%al, (%rax)
     7de: 00 00                        	addb	%al, (%rax)
     7e0: 66 01 00                     	addw	%ax, (%rax)
     7e3: 00 10                        	addb	%dl, (%rax)
     7e5: 00 19                        	addb	%bl, (%rcx)
     7e7: 00 70 60                     	addb	%dh, 96(%rax)
		...
     7f6: 00 00                        	addb	%al, (%rax)
     7f8: 42 03 00                     	addl	(%rax), %eax
     7fb: 00 12                        	addb	%dl, (%rdx)
     7fd: 00 0e                        	addb	%cl, (%rsi)
     7ff: 00 10                        	addb	%dl, (%rax)
     801: 12 00                        	adcb	(%rax), %al
     803: 00 00                        	addb	%al, (%rax)
     805: 00 00                        	addb	%al, (%rax)
     807: 00 2b                        	addb	%ch, (%rbx)
     809: 00 00                        	addb	%al, (%rax)
     80b: 00 00                        	addb	%al, (%rax)
     80d: 00 00                        	addb	%al, (%rax)
     80f: 00 a3 03 00 00 12            	addb	%ah, 301989891(%rbx)
     815: 00 0e                        	addb	%cl, (%rsi)
     817: 00 60 19                     	addb	%ah, 25(%rax)
     81a: 00 00                        	addb	%al, (%rax)
     81c: 00 00                        	addb	%al, (%rax)
     81e: 00 00                        	addb	%al, (%rax)
     820: 7d 00                        	jge	0 <.rela.plt+0x21a>
     822: 00 00                        	addb	%al, (%rax)
     824: 00 00                        	addb	%al, (%rax)
     826: 00 00                        	addb	%al, (%rax)
     828: b4 03                        	movb	$3, %ah
     82a: 00 00                        	addb	%al, (%rax)
     82c: 10 00                        	adcb	%al, (%rax)
     82e: 19 00                        	sbbl	%eax, (%rax)
     830: 50                           	pushq	%rax
     831: 60                           	<unknown>
		...
     83e: 00 00                        	addb	%al, (%rax)
     840: c0 03 00                     	rolb	$0, (%rbx)
     843: 00 12                        	addb	%dl, (%rdx)
     845: 00 0e                        	addb	%cl, (%rsi)
     847: 00 c0                        	addb	%al, %al
     849: 10 00                        	adcb	%al, (%rax)
     84b: 00 00                        	addb	%al, (%rax)
     84d: 00 00                        	addb	%al, (%rax)
     84f: 00 4e 01                     	addb	%cl, 1(%rsi)
     852: 00 00                        	addb	%al, (%rax)
     854: 00 00                        	addb	%al, (%rax)
     856: 00 00                        	addb	%al, (%rax)
     858: c5 03 00                     	<unknown>
     85b: 00 12                        	addb	%dl, (%rdx)
     85d: 00 0e                        	addb	%cl, (%rsi)
     85f: 00 e0                        	addb	%ah, %al
     861: 18 00                        	sbbb	%al, (%rax)
     863: 00 00                        	addb	%al, (%rax)
     865: 00 00                        	addb	%al, (%rax)
     867: 00 7e 00                     	addb	%bh, (%rsi)
     86a: 00 00                        	addb	%al, (%rax)
     86c: 00 00                        	addb	%al, (%rax)
     86e: 00 00                        	addb	%al, (%rax)
     870: d6                           	<unknown>
     871: 03 00                        	addl	(%rax), %eax
     873: 00 12                        	addb	%dl, (%rdx)
     875: 00 0e                        	addb	%cl, (%rsi)
     877: 00 00                        	addb	%al, (%rax)
     879: 13 00                        	adcl	(%rax), %eax
     87b: 00 00                        	addb	%al, (%rax)
     87d: 00 00                        	addb	%al, (%rax)
     87f: 00 36                        	addb	%dh, (%rsi)
     881: 00 00                        	addb	%al, (%rax)
     883: 00 00                        	addb	%al, (%rax)
     885: 00 00                        	addb	%al, (%rax)
     887: 00 ed                        	addb	%ch, %ch
     889: 03 00                        	addl	(%rax), %eax
     88b: 00 12                        	addb	%dl, (%rdx)
		...
     8a1: 04 00                        	addb	$0, %al
     8a3: 00 11                        	addb	%dl, (%rcx)
     8a5: 00 10                        	addb	%dl, (%rax)
     8a7: 00 a0 40 00 00 00            	addb	%ah, 64(%rax)
     8ad: 00 00                        	addb	%al, (%rax)
     8af: 00 20                        	addb	%ah, (%rax)
     8b1: 00 00                        	addb	%al, (%rax)
     8b3: 00 00                        	addb	%al, (%rax)
     8b5: 00 00                        	addb	%al, (%rax)
     8b7: 00 07                        	addb	%al, (%rdi)
     8b9: 04 00                        	addb	$0, %al
     8bb: 00 12                        	addb	%dl, (%rdx)
     8bd: 00 0e                        	addb	%cl, (%rsi)
     8bf: 00 c0                        	addb	%al, %al
     8c1: 16                           	<unknown>
     8c2: 00 00                        	addb	%al, (%rax)
     8c4: 00 00                        	addb	%al, (%rax)
     8c6: 00 00                        	addb	%al, (%rax)
     8c8: 7b 00                        	jnp	0 <.rela.plt+0x2c2>
     8ca: 00 00                        	addb	%al, (%rax)
     8cc: 00 00                        	addb	%al, (%rax)
     8ce: 00 00                        	addb	%al, (%rax)
     8d0: 1d 04 00 00 12               	sbbl	$301989892, %eax
     8d5: 00 0e                        	addb	%cl, (%rsi)
     8d7: 00 40 13                     	addb	%al, 19(%rax)
     8da: 00 00                        	addb	%al, (%rax)
     8dc: 00 00                        	addb	%al, (%rax)
     8de: 00 00                        	addb	%al, (%rax)
     8e0: 5a                           	popq	%rdx
     8e1: 02 00                        	addb	(%rax), %al
     8e3: 00 00                        	addb	%al, (%rax)
     8e5: 00 00                        	addb	%al, (%rax)
     8e7: 00 28                        	addb	%ch, (%rax)
     8e9: 04 00                        	addb	$0, %al
     8eb: 00 12                        	addb	%dl, (%rdx)
		...
     8fd: 00 00                        	addb	%al, (%rax)
     8ff: 00 3c 04                     	addb	%bh, (%rsp,%rax)
     902: 00 00                        	addb	%al, (%rax)
     904: 11 02                        	adcl	%eax, (%rdx)
     906: 18 00                        	sbbb	%al, (%rax)
     908: 50                           	pushq	%rax
     909: 60                           	<unknown>
		...
     916: 00 00                        	addb	%al, (%rax)
     918: 48 04 00                     	addb	$0, %al
     91b: 00 20                        	addb	%ah, (%rax)
		...
     92d: 00 00                        	addb	%al, (%rax)
     92f: 00 62 04                     	addb	%ah, 4(%rdx)
     932: 00 00                        	addb	%al, (%rax)
     934: 12 00                        	adcb	(%rax), %al
     936: 0e                           	<unknown>
     937: 00 60 1a                     	addb	%ah, 26(%rax)
     93a: 00 00                        	addb	%al, (%rax)
     93c: 00 00                        	addb	%al, (%rax)
     93e: 00 00                        	addb	%al, (%rax)
     940: 09 00                        	orl	%eax, (%rax)
     942: 00 00                        	addb	%al, (%rax)
     944: 00 00                        	addb	%al, (%rax)
     946: 00 00                        	addb	%al, (%rax)
     948: 77 04                        	ja	4 <.rela.plt+0x346>
     94a: 00 00                        	addb	%al, (%rax)
     94c: 22 00                        	andb	(%rax), %al
		...
     95e: 00 00                        	addb	%al, (%rax)
     960: 93                           	xchgl	%ebx, %eax
     961: 04 00                        	addb	$0, %al
     963: 00 12                        	addb	%dl, (%rdx)
     965: 00 0e                        	addb	%cl, (%rsi)
     967: 00 a0 21 00 00 00            	addb	%ah, 33(%rax)
     96d: 00 00                        	addb	%al, (%rax)
     96f: 00 fe                        	addb	%bh, %dh
     971: 02 00                        	addb	(%rax), %al
     973: 00 00                        	addb	%al, (%rax)
     975: 00 00                        	addb	%al, (%rax)
     977: 00 ad 04 00 00 11            	addb	%ch, 285212676(%rbp)
     97d: 00 19                        	addb	%bl, (%rcx)
     97f: 00 60 60                     	addb	%ah, 96(%rax)
     982: 00 00                        	addb	%al, (%rax)
     984: 00 00                        	addb	%al, (%rax)
     986: 00 00                        	addb	%al, (%rax)
     988: 08 00                        	orb	%al, (%rax)
     98a: 00 00                        	addb	%al, (%rax)
     98c: 00 00                        	addb	%al, (%rax)
     98e: 00 00                        	addb	%al, (%rax)

Disassembly of section .strtab:

0000000000000000 .strtab:
       0: 00 6c 61 64                  	addb	%ch, 100(%rcx,%riz,2)
       4: 64 65 72 6a                  	jb	106 <.strtab+0x72>
       8: 61                           	<unknown>
       9: 63 2e                        	movslq	(%rsi), %ebp
       b: 63 00                        	movslq	(%rax), %eax
       d: 63 72 74                     	movslq	116(%rdx), %esi
      10: 73 74                        	jae	116 <.strtab+0x86>
      12: 75 66                        	jne	102 <.strtab+0x7a>
      14: 66 2e 63 00                  	movslq	%cs:(%rax), %ax
      18: 64 65 72 65                  	jb	101 <.strtab+0x81>
      1c: 67 69 73 74 65 72 5f 74      	imull	$1952412261, 116(%ebx), %esi
      24: 6d                           	insl	%dx, %es:(%rdi)
      25: 5f                           	popq	%rdi
      26: 63 6c 6f 6e                  	movslq	110(%rdi,%rbp,2), %ebp
      2a: 65 73 00                     	jae	0 <.strtab+0x2d>
      2d: 5f                           	popq	%rdi
      2e: 5f                           	popq	%rdi
      2f: 64 6f                        	outsl	%fs:(%rsi), %dx
      31: 5f                           	popq	%rdi
      32: 67 6c                        	insb	%dx, %es:(%edi)
      34: 6f                           	outsl	(%rsi), %dx
      35: 62 61 6c 5f 64               	<unknown>
      3a: 74 6f                        	je	111 <.strtab+0xab>
      3c: 72 73                        	jb	115 <.strtab+0xb1>
      3e: 5f                           	popq	%rdi
      3f: 61                           	<unknown>
      40: 75 78                        	jne	120 <.strtab+0xba>
      42: 00 63 6f                     	addb	%ah, 111(%rbx)
      45: 6d                           	insl	%dx, %es:(%rdi)
      46: 70 6c                        	jo	108 <.strtab+0xb4>
      48: 65 74 65                     	je	101 <.strtab+0xb0>
      4b: 64 2e 37                     	<unknown>
      4e: 33 32                        	xorl	(%rdx), %esi
      50: 35 00 5f 5f 64               	xorl	$1683971840, %eax
      55: 6f                           	outsl	(%rsi), %dx
      56: 5f                           	popq	%rdi
      57: 67 6c                        	insb	%dx, %es:(%edi)
      59: 6f                           	outsl	(%rsi), %dx
      5a: 62 61 6c 5f 64               	<unknown>
      5f: 74 6f                        	je	111 <.strtab+0xd0>
      61: 72 73                        	jb	115 <.strtab+0xd6>
      63: 5f                           	popq	%rdi
      64: 61                           	<unknown>
      65: 75 78                        	jne	120 <.strtab+0xdf>
      67: 5f                           	popq	%rdi
      68: 66 69 6e 69 5f 61            	imulw	$24927, 105(%rsi), %bp
      6e: 72 72                        	jb	114 <.strtab+0xe2>
      70: 61                           	<unknown>
      71: 79 5f                        	jns	95 <.strtab+0xd2>
      73: 65 6e                        	outsb	%gs:(%rsi), %dx
      75: 74 72                        	je	114 <.strtab+0xe9>
      77: 79 00                        	jns	0 <.strtab+0x79>
      79: 66 72 61                     	jb	97 <.strtab+0xdd>
      7c: 6d                           	insl	%dx, %es:(%rdi)
      7d: 65 5f                        	popq	%rdi
      7f: 64 75 6d                     	jne	109 <.strtab+0xef>
      82: 6d                           	insl	%dx, %es:(%rdi)
      83: 79 00                        	jns	0 <.strtab+0x85>
      85: 5f                           	popq	%rdi
      86: 5f                           	popq	%rdi
      87: 66 72 61                     	jb	97 <.strtab+0xeb>
      8a: 6d                           	insl	%dx, %es:(%rdi)
      8b: 65 5f                        	popq	%rdi
      8d: 64 75 6d                     	jne	109 <.strtab+0xfd>
      90: 6d                           	insl	%dx, %es:(%rdi)
      91: 79 5f                        	jns	95 <.strtab+0xf2>
      93: 69 6e 69 74 5f 61 72         	imull	$1918984052, 105(%rsi), %ebp
      9a: 72 61                        	jb	97 <.strtab+0xfd>
      9c: 79 5f                        	jns	95 <.strtab+0xfd>
      9e: 65 6e                        	outsb	%gs:(%rsi), %dx
      a0: 74 72                        	je	114 <.strtab+0x114>
      a2: 79 00                        	jns	0 <.strtab+0xa4>
      a4: 2f                           	<unknown>
      a5: 74 6d                        	je	109 <.strtab+0x114>
      a7: 70 2f                        	jo	47 <.strtab+0xd8>
      a9: 63 63 76                     	movslq	118(%rbx), %esp
      ac: 49 74 49                     	je	73 <.strtab+0xf8>
      af: 77 48                        	ja	72 <.strtab+0xf9>
      b1: 2e 6f                        	outsl	%cs:(%rsi), %dx
      b3: 00 5f 5f                     	addb	%bl, 95(%rdi)
      b6: 65 63 70 5f                  	movslq	%gs:95(%rax), %esi
      ba: 6e                           	outsb	(%rsi), %dx
      bb: 69 73 74 7a 32 35 36         	imull	$909455994, 116(%rbx), %esi
      c2: 5f                           	popq	%rdi
      c3: 6d                           	insl	%dx, %es:(%rdi)
      c4: 75 6c                        	jne	108 <.strtab+0x132>
      c6: 5f                           	popq	%rdi
      c7: 6d                           	insl	%dx, %es:(%rdi)
      c8: 6f                           	outsl	(%rsi), %dx
      c9: 6e                           	outsb	(%rsi), %dx
      ca: 74 71                        	je	113 <.strtab+0x13d>
      cc: 00 5f 5f                     	addb	%bl, 95(%rdi)
      cf: 65 63 70 5f                  	movslq	%gs:95(%rax), %esi
      d3: 6e                           	outsb	(%rsi), %dx
      d4: 69 73 74 7a 32 35 36         	imull	$909455994, 116(%rbx), %esi
      db: 5f                           	popq	%rdi
      dc: 73 71                        	jae	113 <.strtab+0x14f>
      de: 72 5f                        	jb	95 <.strtab+0x13f>
      e0: 6d                           	insl	%dx, %es:(%rdi)
      e1: 6f                           	outsl	(%rsi), %dx
      e2: 6e                           	outsb	(%rsi), %dx
      e3: 74 71                        	je	113 <.strtab+0x156>
      e5: 00 5f 5f                     	addb	%bl, 95(%rdi)
      e8: 65 63 70 5f                  	movslq	%gs:95(%rax), %esi
      ec: 6e                           	outsb	(%rsi), %dx
      ed: 69 73 74 7a 32 35 36         	imull	$909455994, 116(%rbx), %esi
      f4: 5f                           	popq	%rdi
      f5: 61                           	<unknown>
      f6: 64 64 5f                     	popq	%rdi
      f9: 74 6f                        	je	111 <.strtab+0x16a>
      fb: 71 00                        	jno	0 <.strtab+0xfd>
      fd: 5f                           	popq	%rdi
      fe: 5f                           	popq	%rdi
      ff: 65 63 70 5f                  	movslq	%gs:95(%rax), %esi
     103: 6e                           	outsb	(%rsi), %dx
     104: 69 73 74 7a 32 35 36         	imull	$909455994, 116(%rbx), %esi
     10b: 5f                           	popq	%rdi
     10c: 73 75                        	jae	117 <.strtab+0x183>
     10e: 62                           	<unknown>
     10f: 5f                           	popq	%rdi
     110: 66 72 6f                     	jb	111 <.strtab+0x182>
     113: 6d                           	insl	%dx, %es:(%rdi)
     114: 71 00                        	jno	0 <.strtab+0x116>
     116: 5f                           	popq	%rdi
     117: 5f                           	popq	%rdi
     118: 65 63 70 5f                  	movslq	%gs:95(%rax), %esi
     11c: 6e                           	outsb	(%rsi), %dx
     11d: 69 73 74 7a 32 35 36         	imull	$909455994, 116(%rbx), %esi
     124: 5f                           	popq	%rdi
     125: 73 75                        	jae	117 <.strtab+0x19c>
     127: 62                           	<unknown>
     128: 71 00                        	jno	0 <.strtab+0x12a>
     12a: 5f                           	popq	%rdi
     12b: 5f                           	popq	%rdi
     12c: 65 63 70 5f                  	movslq	%gs:95(%rax), %esi
     130: 6e                           	outsb	(%rsi), %dx
     131: 69 73 74 7a 32 35 36         	imull	$909455994, 116(%rbx), %esi
     138: 5f                           	popq	%rdi
     139: 6d                           	insl	%dx, %es:(%rdi)
     13a: 75 6c                        	jne	108 <.strtab+0x1a8>
     13c: 5f                           	popq	%rdi
     13d: 62                           	<unknown>
     13e: 79 5f                        	jns	95 <.strtab+0x19f>
     140: 32 71 00                     	xorb	(%rcx), %dh
     143: 63 6f 6d                     	movslq	109(%rdi), %ebp
     146: 6d                           	insl	%dx, %es:(%rdi)
     147: 6f                           	outsl	(%rsi), %dx
     148: 6e                           	outsb	(%rsi), %dx
     149: 2e 63 00                     	movslq	%cs:(%rax), %eax
     14c: 5f                           	popq	%rdi
     14d: 5f                           	popq	%rdi
     14e: 46 52                        	pushq	%rdx
     150: 41 4d                        	<unknown>
     152: 45 5f                        	popq	%r15
     154: 45 4e                        	<unknown>
     156: 44 5f                        	popq	%rdi
     158: 5f                           	popq	%rdi
     159: 00 5f 5f                     	addb	%bl, 95(%rdi)
     15c: 69 6e 69 74 5f 61 72         	imull	$1918984052, 105(%rsi), %ebp
     163: 72 61                        	jb	97 <.strtab+0x1c6>
     165: 79 5f                        	jns	95 <.strtab+0x1c6>
     167: 65 6e                        	outsb	%gs:(%rsi), %dx
     169: 64 00 5f 44                  	addb	%bl, %fs:68(%rdi)
     16d: 59                           	popq	%rcx
     16e: 4e 41                        	<unknown>
     170: 4d 49                        	<unknown>
     172: 43 00 5f 5f                  	addb	%bl, 95(%r15)
     176: 69 6e 69 74 5f 61 72         	imull	$1918984052, 105(%rsi), %ebp
     17d: 72 61                        	jb	97 <.strtab+0x1e0>
     17f: 79 5f                        	jns	95 <.strtab+0x1e0>
     181: 73 74                        	jae	116 <.strtab+0x1f7>
     183: 61                           	<unknown>
     184: 72 74                        	jb	116 <.strtab+0x1fa>
     186: 00 5f 5f                     	addb	%bl, 95(%rdi)
     189: 47 4e                        	<unknown>
     18b: 55                           	pushq	%rbp
     18c: 5f                           	popq	%rdi
     18d: 45 48                        	rex64
     18f: 5f                           	popq	%rdi
     190: 46 52                        	pushq	%rdx
     192: 41 4d                        	<unknown>
     194: 45 5f                        	popq	%r15
     196: 48 44                        	<unknown>
     198: 52                           	pushq	%rdx
     199: 00 5f 47                     	addb	%bl, 71(%rdi)
     19c: 4c 4f                        	<unknown>
     19e: 42 41                        	<unknown>
     1a0: 4c 5f                        	popq	%rdi
     1a2: 4f 46                        	<unknown>
     1a4: 46 53                        	pushq	%rbx
     1a6: 45 54                        	pushq	%r12
     1a8: 5f                           	popq	%rdi
     1a9: 54                           	pushq	%rsp
     1aa: 41 42                        	<unknown>
     1ac: 4c 45                        	<unknown>
     1ae: 5f                           	popq	%rdi
     1af: 00 5f 5f                     	addb	%bl, 95(%rdi)
     1b2: 6c                           	insb	%dx, %es:(%rdi)
     1b3: 69 62 63 5f 63 73 75         	imull	$1970496351, 99(%rdx), %esp
     1ba: 5f                           	popq	%rdi
     1bb: 66 69 6e 69 00 68            	imulw	$26624, 105(%rsi), %bp
     1c1: 65 78 54                     	js	84 <.strtab+0x218>
     1c4: 6f                           	outsl	(%rsi), %dx
     1c5: 42 79 74                     	jns	116 <.strtab+0x23c>
     1c8: 65 73 00                     	jae	0 <.strtab+0x1cb>
     1cb: 6e                           	outsb	(%rsi), %dx
     1cc: 69 62 62 6c 65 46 72         	imull	$1917216108, 98(%rdx), %esp
     1d3: 6f                           	outsl	(%rsi), %dx
     1d4: 6d                           	insl	%dx, %es:(%rdi)
     1d5: 43 68 61 72 00 5f            	pushq	$1593864801
     1db: 49 54                        	pushq	%r12
     1dd: 4d 5f                        	popq	%r15
     1df: 64 65 72 65                  	jb	101 <.strtab+0x248>
     1e3: 67 69 73 74 65 72 54 4d      	imull	$1297379941, 116(%ebx), %esi
     1eb: 43 6c                        	insb	%dx, %es:(%rdi)
     1ed: 6f                           	outsl	(%rsi), %dx
     1ee: 6e                           	outsb	(%rsi), %dx
     1ef: 65 54                        	pushq	%rsp
     1f1: 61                           	<unknown>
     1f2: 62                           	<unknown>
     1f3: 6c                           	insb	%dx, %es:(%rdi)
     1f4: 65 00 65 63                  	addb	%ah, %gs:99(%rbp)
     1f8: 70 5f                        	jo	95 <.strtab+0x259>
     1fa: 6e                           	outsb	(%rsi), %dx
     1fb: 69 73 74 7a 32 35 36         	imull	$909455994, 116(%rbx), %esi
     202: 5f                           	popq	%rdi
     203: 6e                           	outsb	(%rsi), %dx
     204: 65 67 00 62 6e               	addb	%ah, %gs:110(%edx)
     209: 5f                           	popq	%rdi
     20a: 63 6f 6e                     	movslq	110(%rdi), %ebp
     20d: 64 69 74 69 6f 6e 61 6c 5f   	imull	$1600938350, %fs:111(%rcx,%rbp,2), %esi
     216: 73 77                        	jae	119 <.strtab+0x28f>
     218: 61                           	<unknown>
     219: 70 00                        	jo	0 <.strtab+0x21b>
     21b: 65 63 70 5f                  	movslq	%gs:95(%rax), %esi
     21f: 6e                           	outsb	(%rsi), %dx
     220: 69 73 74 7a 32 35 36         	imull	$909455994, 116(%rbx), %esi
     227: 5f                           	popq	%rdi
     228: 73 71                        	jae	113 <.strtab+0x29b>
     22a: 72 5f                        	jb	95 <.strtab+0x28b>
     22c: 6d                           	insl	%dx, %es:(%rdi)
     22d: 6f                           	outsl	(%rsi), %dx
     22e: 6e                           	outsb	(%rsi), %dx
     22f: 74 00                        	je	0 <.strtab+0x231>
     231: 65 63 70 5f                  	movslq	%gs:95(%rax), %esi
     235: 6e                           	outsb	(%rsi), %dx
     236: 69 73 74 7a 32 35 36         	imull	$909455994, 116(%rbx), %esi
     23d: 5f                           	popq	%rdi
     23e: 70 6f                        	jo	111 <.interp+0x7>
     240: 69 6e 74 5f 61 64 64         	imull	$1684300127, 116(%rsi), %ebp
     247: 00 65 63                     	addb	%ah, 99(%rbp)
     24a: 70 5f                        	jo	95 <.interp+0x3>
     24c: 6e                           	outsb	(%rsi), %dx
     24d: 69 73 74 7a 32 35 36         	imull	$909455994, 116(%rbx), %esi
     254: 5f                           	popq	%rdi
     255: 66 72 6f                     	jb	111 <.note.ABI-tag+0x3>
     258: 6d                           	insl	%dx, %es:(%rdi)
     259: 5f                           	popq	%rdi
     25a: 6d                           	insl	%dx, %es:(%rdi)
     25b: 6f                           	outsl	(%rsi), %dx
     25c: 6e                           	outsb	(%rsi), %dx
     25d: 74 00                        	je	0 <.strtab+0x25f>
     25f: 64 65 66 5f                  	popw	%di
     263: 79 47                        	jns	71 <.interp+0x4>
     265: 00 5f 65                     	addb	%bl, 101(%rdi)
     268: 64 61                        	<unknown>
     26a: 74 61                        	je	97 <.note.ABI-tag+0x9>
     26c: 00 66 63                     	addb	%ah, 99(%rsi)
     26f: 6c                           	insb	%dx, %es:(%rdi)
     270: 6f                           	outsl	(%rsi), %dx
     271: 73 65                        	jae	101 <.note.ABI-tag+0x14>
     273: 40 40                        	<unknown>
     275: 47 4c                        	<unknown>
     277: 49 42                        	<unknown>
     279: 43 5f                        	popq	%r15
     27b: 32 2e                        	xorb	(%rsi), %ch
     27d: 32 2e                        	xorb	(%rsi), %ch
     27f: 35 00 62 6e 5f               	xorl	$1601069568, %eax
     284: 69 73 5f 62 69 74 5f         	imull	$1601464674, 95(%rbx), %esi
     28b: 73 65                        	jae	101 <.note.gnu.build-id+0xe>
     28d: 74 00                        	je	0 <.strtab+0x28f>
     28f: 62                           	<unknown>
     290: 6e                           	outsb	(%rsi), %dx
     291: 5f                           	popq	%rdi
     292: 61                           	<unknown>
     293: 64 64 00 65 63               	addb	%ah, %fs:99(%rbp)
     298: 70 5f                        	jo	95 <.note.gnu.build-id+0x15>
     29a: 6e                           	outsb	(%rsi), %dx
     29b: 69 73 74 7a 32 35 36         	imull	$909455994, 116(%rbx), %esi
     2a2: 5f                           	popq	%rdi
     2a3: 6d                           	insl	%dx, %es:(%rdi)
     2a4: 75 6c                        	jne	108 <.gnu.hash+0xa>
     2a6: 5f                           	popq	%rdi
     2a7: 62                           	<unknown>
     2a8: 79 5f                        	jns	95 <.gnu.hash+0x1>
     2aa: 33 00                        	xorl	(%rax), %eax
     2ac: 65 63 70 5f                  	movslq	%gs:95(%rax), %esi
     2b0: 6e                           	outsb	(%rsi), %dx
     2b1: 69 73 74 7a 32 35 36         	imull	$909455994, 116(%rbx), %esi
     2b8: 5f                           	popq	%rdi
     2b9: 6d                           	insl	%dx, %es:(%rdi)
     2ba: 6f                           	outsl	(%rsi), %dx
     2bb: 64 5f                        	popq	%rdi
     2bd: 69 6e 76 65 72 73 65         	imull	$1702064741, 118(%rsi), %ebp
     2c4: 00 65 63                     	addb	%ah, 99(%rbp)
     2c7: 70 5f                        	jo	95 <.gnu.hash+0x20>
     2c9: 6e                           	outsb	(%rsi), %dx
     2ca: 69 73 74 7a 32 35 36         	imull	$909455994, 116(%rbx), %esi
     2d1: 5f                           	popq	%rdi
     2d2: 64 69 76 5f 62 79 5f 32      	imull	$845117794, %fs:95(%rsi), %esi
     2da: 00 66 70                     	addb	%ah, 112(%rsi)
     2dd: 75 74                        	jne	116 <.dynsym+0x23>
     2df: 63 40 40                     	movslq	64(%rax), %eax
     2e2: 47 4c                        	<unknown>
     2e4: 49 42                        	<unknown>
     2e6: 43 5f                        	popq	%r15
     2e8: 32 2e                        	xorb	(%rsi), %ch
     2ea: 32 2e                        	xorb	(%rsi), %ch
     2ec: 35 00 5f 5f 6c               	xorl	$1818189568, %eax
     2f1: 69 62 63 5f 73 74 61         	imull	$1635021663, 99(%rdx), %esp
     2f8: 72 74                        	jb	116 <.dynsym+0x3e>
     2fa: 5f                           	popq	%rdi
     2fb: 6d                           	insl	%dx, %es:(%rdi)
     2fc: 61                           	<unknown>
     2fd: 69 6e 40 40 47 4c 49         	imull	$1229735744, 64(%rsi), %ebp
     304: 42 43                        	<unknown>
     306: 5f                           	popq	%rdi
     307: 32 2e                        	xorb	(%rsi), %ch
     309: 32 2e                        	xorb	(%rsi), %ch
     30b: 35 00 65 63 70               	xorl	$1885562112, %eax
     310: 5f                           	popq	%rdi
     311: 6e                           	outsb	(%rsi), %dx
     312: 69 73 74 7a 32 35 36         	imull	$909455994, 116(%rbx), %esi
     319: 5f                           	popq	%rdi
     31a: 6d                           	insl	%dx, %es:(%rdi)
     31b: 75 6c                        	jne	108 <.dynsym+0x59>
     31d: 5f                           	popq	%rdi
     31e: 6d                           	insl	%dx, %es:(%rdi)
     31f: 6f                           	outsl	(%rsi), %dx
     320: 6e                           	outsb	(%rsi), %dx
     321: 74 00                        	je	0 <.gnu.hash+0x1b>
     323: 62                           	<unknown>
     324: 6e                           	outsb	(%rsi), %dx
     325: 5f                           	popq	%rdi
     326: 63 6f 6e                     	movslq	110(%rdi), %ebp
     329: 64 69 74 69 6f 6e 61 6c 5f   	imull	$1600938350, %fs:111(%rcx,%rbp,2), %esi
     332: 73 65                        	jae	101 <.dynsym+0x69>
     334: 6c                           	insb	%dx, %es:(%rdi)
     335: 65 63 74 69 6f               	movslq	%gs:111(%rcx,%rbp,2), %esi
     33a: 6e                           	outsb	(%rsi), %dx
     33b: 00 5f 5f                     	addb	%bl, 95(%rdi)
     33e: 64 61                        	<unknown>
     340: 74 61                        	je	97 <.dynsym+0x73>
     342: 5f                           	popq	%rdi
     343: 73 74                        	jae	116 <.dynsym+0x89>
     345: 61                           	<unknown>
     346: 72 74                        	jb	116 <.dynsym+0x8c>
     348: 00 6f 72                     	addb	%ch, 114(%rdi)
     34b: 64 65 72 00                  	jb	0 <.dynsym+0x1f>
     34f: 66 70 72                     	jo	114 <.dynsym+0x94>
     352: 69 6e 74 66 40 40 47         	imull	$1195393126, 116(%rsi), %ebp
     359: 4c 49                        	<unknown>
     35b: 42 43                        	<unknown>
     35d: 5f                           	popq	%rdi
     35e: 32 2e                        	xorb	(%rsi), %ch
     360: 32 2e                        	xorb	(%rsi), %ch
     362: 35 00 5f 5f 67               	xorl	$1734303488, %eax
     367: 6d                           	insl	%dx, %es:(%rdi)
     368: 6f                           	outsl	(%rsi), %dx
     369: 6e                           	outsb	(%rsi), %dx
     36a: 5f                           	popq	%rdi
     36b: 73 74                        	jae	116 <.dynsym+0xb1>
     36d: 61                           	<unknown>
     36e: 72 74                        	jb	116 <.dynsym+0xb4>
     370: 5f                           	popq	%rdi
     371: 5f                           	popq	%rdi
     372: 00 5f 5f                     	addb	%bl, 95(%rdi)
     375: 64 73 6f                     	jae	111 <.dynsym+0xb7>
     378: 5f                           	popq	%rdi
     379: 68 61 6e 64 6c               	pushq	$1818521185
     37e: 65 00 5f 49                  	addb	%bl, %gs:73(%rdi)
     382: 4f 5f                        	popq	%r15
     384: 73 74                        	jae	116 <.dynsym+0xca>
     386: 64 69 6e 5f 75 73 65 64      	imull	$1684370293, %fs:95(%rsi), %ebp
     38e: 00 4f 4e                     	addb	%cl, 78(%rdi)
     391: 45 00 5f 5f                  	addb	%r11b, 95(%r15)
     395: 6c                           	insb	%dx, %es:(%rdi)
     396: 69 62 63 5f 63 73 75         	imull	$1970496351, 99(%rdx), %esp
     39d: 5f                           	popq	%rdi
     39e: 69 6e 69 74 00 65 63         	imull	$1667563636, 105(%rsi), %ebp
     3a5: 70 5f                        	jo	95 <.dynsym+0xd6>
     3a7: 6e                           	outsb	(%rsi), %dx
     3a8: 69 73 74 7a 32 35 36         	imull	$909455994, 116(%rbx), %esi
     3af: 5f                           	popq	%rdi
     3b0: 73 75                        	jae	117 <.dynsym+0xf7>
     3b2: 62 00 5f 5f                  	<unknown>
     3b6: 62                           	<unknown>
     3b7: 73 73                        	jae	115 <.dynsym+0xfc>
     3b9: 5f                           	popq	%rdi
     3ba: 73 74                        	jae	116 <.dynsym+0x100>
     3bc: 61                           	<unknown>
     3bd: 72 74                        	jb	116 <.dynsym+0x103>
     3bf: 00 6d 61                     	addb	%ch, 97(%rbp)
     3c2: 69 6e 00 65 63 70 5f         	imull	$1601200997, (%rsi), %ebp
     3c9: 6e                           	outsb	(%rsi), %dx
     3ca: 69 73 74 7a 32 35 36         	imull	$909455994, 116(%rbx), %esi
     3d1: 5f                           	popq	%rdi
     3d2: 61                           	<unknown>
     3d3: 64 64 00 70 6f               	addb	%dh, %fs:111(%rax)
     3d8: 69 6e 74 5f 63 6f 6e         	imull	$1852793695, 116(%rsi), %ebp
     3df: 64 69 74 69 6f 6e 61 6c 5f   	imull	$1600938350, %fs:111(%rcx,%rbp,2), %esi
     3e8: 73 77                        	jae	119 <.dynstr+0x11>
     3ea: 61                           	<unknown>
     3eb: 70 00                        	jo	0 <.dynsym+0xbd>
     3ed: 66 6f                        	outsw	(%rsi), %dx
     3ef: 70 65                        	jo	101 <.dynstr+0x6>
     3f1: 6e                           	outsb	(%rsi), %dx
     3f2: 40 40                        	<unknown>
     3f4: 47 4c                        	<unknown>
     3f6: 49 42                        	<unknown>
     3f8: 43 5f                        	popq	%r15
     3fa: 32 2e                        	xorb	(%rsi), %ch
     3fc: 32 2e                        	xorb	(%rsi), %ch
     3fe: 35 00 64 65 66               	xorl	$1717920768, %eax
     403: 5f                           	popq	%rdi
     404: 78 47                        	js	71 <.dynsym+0x11d>
     406: 00 65 63                     	addb	%ah, 99(%rbp)
     409: 70 5f                        	jo	95 <.dynstr+0x1a>
     40b: 6e                           	outsb	(%rsi), %dx
     40c: 69 73 74 7a 32 35 36         	imull	$909455994, 116(%rbx), %esi
     413: 5f                           	popq	%rdi
     414: 6d                           	insl	%dx, %es:(%rdi)
     415: 75 6c                        	jne	108 <.dynstr+0x33>
     417: 5f                           	popq	%rdi
     418: 62                           	<unknown>
     419: 79 5f                        	jns	95 <.dynstr+0x2a>
     41b: 32 00                        	xorb	(%rax), %al
     41d: 6c                           	insb	%dx, %es:(%rdi)
     41e: 61                           	<unknown>
     41f: 64 64 65 72 5f               	jb	95 <.dynstr+0x33>
     424: 6a 61                        	pushq	$97
     426: 63 00                        	movslq	(%rax), %eax
     428: 66 77 72                     	ja	114 <.dynstr+0x4d>
     42b: 69 74 65 40 40 47 4c 49      	imull	$1229735744, 64(%rbp,%riz,2), %esi
     433: 42 43                        	<unknown>
     435: 5f                           	popq	%rdi
     436: 32 2e                        	xorb	(%rsi), %ch
     438: 32 2e                        	xorb	(%rsi), %ch
     43a: 35 00 5f 5f 54               	xorl	$1415536384, %eax
     43f: 4d 43                        	<unknown>
     441: 5f                           	popq	%rdi
     442: 45 4e                        	<unknown>
     444: 44 5f                        	popq	%rdi
     446: 5f                           	popq	%rdi
     447: 00 5f 49                     	addb	%bl, 73(%rdi)
     44a: 54                           	pushq	%rsp
     44b: 4d 5f                        	popq	%r15
     44d: 72 65                        	jb	101 <.dynstr+0x64>
     44f: 67 69 73 74 65 72 54 4d      	imull	$1297379941, 116(%ebx), %esi
     457: 43 6c                        	insb	%dx, %es:(%rdi)
     459: 6f                           	outsl	(%rsi), %dx
     45a: 6e                           	outsb	(%rsi), %dx
     45b: 65 54                        	pushq	%rsp
     45d: 61                           	<unknown>
     45e: 62                           	<unknown>
     45f: 6c                           	insb	%dx, %es:(%rdi)
     460: 65 00 65 63                  	addb	%ah, %gs:99(%rbp)
     464: 70 5f                        	jo	95 <.dynstr+0x75>
     466: 6e                           	outsb	(%rsi), %dx
     467: 69 73 74 7a 32 35 36         	imull	$909455994, 116(%rbx), %esi
     46e: 5f                           	popq	%rdi
     46f: 74 6f                        	je	111 <.dynstr+0x90>
     471: 5f                           	popq	%rdi
     472: 6d                           	insl	%dx, %es:(%rdi)
     473: 6f                           	outsl	(%rsi), %dx
     474: 6e                           	outsb	(%rsi), %dx
     475: 74 00                        	je	0 <.dynstr+0x27>
     477: 5f                           	popq	%rdi
     478: 5f                           	popq	%rdi
     479: 63 78 61                     	movslq	97(%rax), %edi
     47c: 5f                           	popq	%rdi
     47d: 66 69 6e 61 6c 69            	imulw	$26988, 97(%rsi), %bp
     483: 7a 65                        	jp	101 <.dynstr+0x9a>
     485: 40 40                        	<unknown>
     487: 47 4c                        	<unknown>
     489: 49 42                        	<unknown>
     48b: 43 5f                        	popq	%r15
     48d: 32 2e                        	xorb	(%rsi), %ch
     48f: 32 2e                        	xorb	(%rsi), %ch
     491: 35 00 65 63 70               	xorl	$1885562112, %eax
     496: 5f                           	popq	%rdi
     497: 6e                           	outsb	(%rsi), %dx
     498: 69 73 74 7a 32 35 36         	imull	$909455994, 116(%rbx), %esi
     49f: 5f                           	popq	%rdi
     4a0: 70 6f                        	jo	111 <.gnu.version_r+0x1>
     4a2: 69 6e 74 5f 64 6f 75         	imull	$1970234463, 116(%rsi), %ebp
     4a9: 62                           	<unknown>
     4aa: 6c                           	insb	%dx, %es:(%rdi)
     4ab: 65 00 73 74                  	addb	%dh, %gs:116(%rbx)
     4af: 64 65 72 72                  	jb	114 <.gnu.version_r+0x15>
     4b3: 40 40                        	<unknown>
     4b5: 47 4c                        	<unknown>
     4b7: 49 42                        	<unknown>
     4b9: 43 5f                        	popq	%r15
     4bb: 32 2e                        	xorb	(%rsi), %ch
     4bd: 32 2e                        	xorb	(%rsi), %ch
     4bf: 35                           	<unknown>
     4c0: 00                           	<unknown>

Disassembly of section .shstrtab:

0000000000000000 .shstrtab:
       0: 00 2e                        	addb	%ch, (%rsi)
       2: 73 79                        	jae	121 <.strtab+0x7d>
       4: 6d                           	insl	%dx, %es:(%rdi)
       5: 74 61                        	je	97 <.strtab+0x68>
       7: 62 00 2e 73                  	<unknown>
       b: 74 72                        	je	114 <.strtab+0x7f>
       d: 74 61                        	je	97 <.strtab+0x70>
       f: 62 00 2e 73                  	<unknown>
      13: 68 73 74 72 74               	pushq	$1953657971
      18: 61                           	<unknown>
      19: 62 00 2e 69                  	<unknown>
      1d: 6e                           	outsb	(%rsi), %dx
      1e: 74 65                        	je	101 <.strtab+0x85>
      20: 72 70                        	jb	112 <.strtab+0x92>
      22: 00 2e                        	addb	%ch, (%rsi)
      24: 6e                           	outsb	(%rsi), %dx
      25: 6f                           	outsl	(%rsi), %dx
      26: 74 65                        	je	101 <.strtab+0x8d>
      28: 2e 41 42                     	<unknown>
      2b: 49 2d 74 61 67 00            	subq	$6775156, %rax
      31: 2e 6e                        	outsb	%cs:(%rsi), %dx
      33: 6f                           	outsl	(%rsi), %dx
      34: 74 65                        	je	101 <.strtab+0x9b>
      36: 2e 67 6e                     	outsb	%cs:(%esi), %dx
      39: 75 2e                        	jne	46 <.strtab+0x69>
      3b: 62                           	<unknown>
      3c: 75 69                        	jne	105 <.strtab+0xa7>
      3e: 6c                           	insb	%dx, %es:(%rdi)
      3f: 64 2d 69 64 00 2e            	subl	$771777641, %eax
      45: 67 6e                        	outsb	(%esi), %dx
      47: 75 2e                        	jne	46 <.strtab+0x77>
      49: 68 61 73 68 00               	pushq	$6845281
      4e: 2e 64 79 6e                  	jns	110 <.strtab+0xc0>
      52: 73 79                        	jae	121 <.strtab+0xcd>
      54: 6d                           	insl	%dx, %es:(%rdi)
      55: 00 2e                        	addb	%ch, (%rsi)
      57: 64 79 6e                     	jns	110 <.strtab+0xc8>
      5a: 73 74                        	jae	116 <.strtab+0xd0>
      5c: 72 00                        	jb	0 <.strtab+0x5e>
      5e: 2e 67 6e                     	outsb	%cs:(%esi), %dx
      61: 75 2e                        	jne	46 <.strtab+0x91>
      63: 76 65                        	jbe	101 <.strtab+0xca>
      65: 72 73                        	jb	115 <.strtab+0xda>
      67: 69 6f 6e 00 2e 67 6e         	imull	$1852255744, 110(%rdi), %ebp
      6e: 75 2e                        	jne	46 <.strtab+0x9e>
      70: 76 65                        	jbe	101 <.strtab+0xd7>
      72: 72 73                        	jb	115 <.strtab+0xe7>
      74: 69 6f 6e 5f 72 00 2e         	imull	$771781215, 110(%rdi), %ebp
      7b: 72 65                        	jb	101 <.strtab+0xe2>
      7d: 6c                           	insb	%dx, %es:(%rdi)
      7e: 61                           	<unknown>
      7f: 2e 64 79 6e                  	jns	110 <.strtab+0xf1>
      83: 00 2e                        	addb	%ch, (%rsi)
      85: 72 65                        	jb	101 <.strtab+0xec>
      87: 6c                           	insb	%dx, %es:(%rdi)
      88: 61                           	<unknown>
      89: 2e 70 6c                     	jo	108 <.strtab+0xf8>
      8c: 74 00                        	je	0 <.strtab+0x8e>
      8e: 2e 69 6e 69 74 00 2e 70      	imull	$1882062964, %cs:105(%rsi), %ebp
      96: 6c                           	insb	%dx, %es:(%rdi)
      97: 74 2e                        	je	46 <.strtab+0xc7>
      99: 67 6f                        	outsl	(%esi), %dx
      9b: 74 00                        	je	0 <.strtab+0x9d>
      9d: 2e 74 65                     	je	101 <.strtab+0x105>
      a0: 78 74                        	js	116 <.strtab+0x116>
      a2: 00 2e                        	addb	%ch, (%rsi)
      a4: 66 69 6e 69 00 2e            	imulw	$11776, 105(%rsi), %bp
      aa: 72 6f                        	jb	111 <.strtab+0x11b>
      ac: 64 61                        	<unknown>
      ae: 74 61                        	je	97 <.strtab+0x111>
      b0: 00 2e                        	addb	%ch, (%rsi)
      b2: 65 68 5f 66 72 61            	pushq	$1634887263
      b8: 6d                           	insl	%dx, %es:(%rdi)
      b9: 65 5f                        	popq	%rdi
      bb: 68 64 72 00 2e               	pushq	$771781220
      c0: 65 68 5f 66 72 61            	pushq	$1634887263
      c6: 6d                           	insl	%dx, %es:(%rdi)
      c7: 65 00 2e                     	addb	%ch, %gs:(%rsi)
      ca: 69 6e 69 74 5f 61 72         	imull	$1918984052, 105(%rsi), %ebp
      d1: 72 61                        	jb	97 <.strtab+0x134>
      d3: 79 00                        	jns	0 <.strtab+0xd5>
      d5: 2e 66 69 6e 69 5f 61         	imulw	$24927, %cs:105(%rsi), %bp
      dc: 72 72                        	jb	114 <.strtab+0x150>
      de: 61                           	<unknown>
      df: 79 00                        	jns	0 <.strtab+0xe1>
      e1: 2e 64 79 6e                  	jns	110 <.strtab+0x153>
      e5: 61                           	<unknown>
      e6: 6d                           	insl	%dx, %es:(%rdi)
      e7: 69 63 00 2e 67 6f 74         	imull	$1953457966, (%rbx), %esp
      ee: 2e 70 6c                     	jo	108 <.strtab+0x15d>
      f1: 74 00                        	je	0 <.strtab+0xf3>
      f3: 2e 64 61                     	<unknown>
      f6: 74 61                        	je	97 <.strtab+0x159>
      f8: 00 2e                        	addb	%ch, (%rsi)
      fa: 62                           	<unknown>
      fb: 73 73                        	jae	115 <.strtab+0x170>
      fd: 00 2e                        	addb	%ch, (%rsi)
      ff: 63 6f 6d                     	movslq	109(%rdi), %ebp
     102: 6d                           	insl	%dx, %es:(%rdi)
     103: 65 6e                        	outsb	%gs:(%rsi), %dx
     105: 74 00                        	je	0 <.strtab+0x107>
